
build/main:     file format elf64-x86-64


Disassembly of section .init:

0000000000001000 <_init>:
    1000:	f3 0f 1e fa          	endbr64
    1004:	48 83 ec 08          	sub    rsp,0x8
    1008:	48 8b 05 e1 4f 00 00 	mov    rax,QWORD PTR [rip+0x4fe1]        # 5ff0 <__gmon_start__@Base>
    100f:	48 85 c0             	test   rax,rax
    1012:	74 02                	je     1016 <_init+0x16>
    1014:	ff d0                	call   rax
    1016:	48 83 c4 08          	add    rsp,0x8
    101a:	c3                   	ret

Disassembly of section .plt:

0000000000001020 <__printf_chk@plt-0x10>:
    1020:	ff 35 da 4e 00 00    	push   QWORD PTR [rip+0x4eda]        # 5f00 <_GLOBAL_OFFSET_TABLE_+0x8>
    1026:	ff 25 dc 4e 00 00    	jmp    QWORD PTR [rip+0x4edc]        # 5f08 <_GLOBAL_OFFSET_TABLE_+0x10>
    102c:	0f 1f 40 00          	nop    DWORD PTR [rax+0x0]

0000000000001030 <__printf_chk@plt>:
    1030:	ff 25 da 4e 00 00    	jmp    QWORD PTR [rip+0x4eda]        # 5f10 <__printf_chk@GLIBC_2.3.4>
    1036:	68 00 00 00 00       	push   0x0
    103b:	e9 e0 ff ff ff       	jmp    1020 <_init+0x20>

0000000000001040 <rand@plt>:
    1040:	ff 25 d2 4e 00 00    	jmp    QWORD PTR [rip+0x4ed2]        # 5f18 <rand@GLIBC_2.2.5>
    1046:	68 01 00 00 00       	push   0x1
    104b:	e9 d0 ff ff ff       	jmp    1020 <_init+0x20>

0000000000001050 <strchr@plt>:
    1050:	ff 25 ca 4e 00 00    	jmp    QWORD PTR [rip+0x4eca]        # 5f20 <strchr@GLIBC_2.2.5>
    1056:	68 02 00 00 00       	push   0x2
    105b:	e9 c0 ff ff ff       	jmp    1020 <_init+0x20>

0000000000001060 <__strncpy_chk@plt>:
    1060:	ff 25 c2 4e 00 00    	jmp    QWORD PTR [rip+0x4ec2]        # 5f28 <__strncpy_chk@GLIBC_2.3.4>
    1066:	68 03 00 00 00       	push   0x3
    106b:	e9 b0 ff ff ff       	jmp    1020 <_init+0x20>

0000000000001070 <__assert_fail@plt>:
    1070:	ff 25 ba 4e 00 00    	jmp    QWORD PTR [rip+0x4eba]        # 5f30 <__assert_fail@GLIBC_2.2.5>
    1076:	68 04 00 00 00       	push   0x4
    107b:	e9 a0 ff ff ff       	jmp    1020 <_init+0x20>

0000000000001080 <calloc@plt>:
    1080:	ff 25 b2 4e 00 00    	jmp    QWORD PTR [rip+0x4eb2]        # 5f38 <calloc@GLIBC_2.2.5>
    1086:	68 05 00 00 00       	push   0x5
    108b:	e9 90 ff ff ff       	jmp    1020 <_init+0x20>

0000000000001090 <open@plt>:
    1090:	ff 25 aa 4e 00 00    	jmp    QWORD PTR [rip+0x4eaa]        # 5f40 <open@GLIBC_2.2.5>
    1096:	68 06 00 00 00       	push   0x6
    109b:	e9 80 ff ff ff       	jmp    1020 <_init+0x20>

00000000000010a0 <aligned_alloc@plt>:
    10a0:	ff 25 a2 4e 00 00    	jmp    QWORD PTR [rip+0x4ea2]        # 5f48 <aligned_alloc@GLIBC_2.16>
    10a6:	68 07 00 00 00       	push   0x7
    10ab:	e9 70 ff ff ff       	jmp    1020 <_init+0x20>

00000000000010b0 <stat@plt>:
    10b0:	ff 25 9a 4e 00 00    	jmp    QWORD PTR [rip+0x4e9a]        # 5f50 <stat@GLIBC_2.33>
    10b6:	68 08 00 00 00       	push   0x8
    10bb:	e9 60 ff ff ff       	jmp    1020 <_init+0x20>

00000000000010c0 <srand@plt>:
    10c0:	ff 25 92 4e 00 00    	jmp    QWORD PTR [rip+0x4e92]        # 5f58 <srand@GLIBC_2.2.5>
    10c6:	68 09 00 00 00       	push   0x9
    10cb:	e9 50 ff ff ff       	jmp    1020 <_init+0x20>

00000000000010d0 <fclose@plt>:
    10d0:	ff 25 8a 4e 00 00    	jmp    QWORD PTR [rip+0x4e8a]        # 5f60 <fclose@GLIBC_2.2.5>
    10d6:	68 0a 00 00 00       	push   0xa
    10db:	e9 40 ff ff ff       	jmp    1020 <_init+0x20>

00000000000010e0 <__stack_chk_fail@plt>:
    10e0:	ff 25 82 4e 00 00    	jmp    QWORD PTR [rip+0x4e82]        # 5f68 <__stack_chk_fail@GLIBC_2.4>
    10e6:	68 0b 00 00 00       	push   0xb
    10eb:	e9 30 ff ff ff       	jmp    1020 <_init+0x20>

00000000000010f0 <fopen@plt>:
    10f0:	ff 25 7a 4e 00 00    	jmp    QWORD PTR [rip+0x4e7a]        # 5f70 <fopen@GLIBC_2.2.5>
    10f6:	68 0c 00 00 00       	push   0xc
    10fb:	e9 20 ff ff ff       	jmp    1020 <_init+0x20>

0000000000001100 <free@plt>:
    1100:	ff 25 72 4e 00 00    	jmp    QWORD PTR [rip+0x4e72]        # 5f78 <free@GLIBC_2.2.5>
    1106:	68 0d 00 00 00       	push   0xd
    110b:	e9 10 ff ff ff       	jmp    1020 <_init+0x20>

0000000000001110 <_ZNSt6chrono3_V212steady_clock3nowEv@plt>:
    1110:	ff 25 6a 4e 00 00    	jmp    QWORD PTR [rip+0x4e6a]        # 5f80 <_ZNSt6chrono3_V212steady_clock3nowEv@GLIBCXX_3.4.19>
    1116:	68 0e 00 00 00       	push   0xe
    111b:	e9 00 ff ff ff       	jmp    1020 <_init+0x20>

0000000000001120 <__memset_chk@plt>:
    1120:	ff 25 62 4e 00 00    	jmp    QWORD PTR [rip+0x4e62]        # 5f88 <__memset_chk@GLIBC_2.3.4>
    1126:	68 0f 00 00 00       	push   0xf
    112b:	e9 f0 fe ff ff       	jmp    1020 <_init+0x20>

0000000000001130 <strcmp@plt>:
    1130:	ff 25 5a 4e 00 00    	jmp    QWORD PTR [rip+0x4e5a]        # 5f90 <strcmp@GLIBC_2.2.5>
    1136:	68 10 00 00 00       	push   0x10
    113b:	e9 e0 fe ff ff       	jmp    1020 <_init+0x20>

0000000000001140 <read@plt>:
    1140:	ff 25 52 4e 00 00    	jmp    QWORD PTR [rip+0x4e52]        # 5f98 <read@GLIBC_2.2.5>
    1146:	68 11 00 00 00       	push   0x11
    114b:	e9 d0 fe ff ff       	jmp    1020 <_init+0x20>

0000000000001150 <puts@plt>:
    1150:	ff 25 4a 4e 00 00    	jmp    QWORD PTR [rip+0x4e4a]        # 5fa0 <puts@GLIBC_2.2.5>
    1156:	68 12 00 00 00       	push   0x12
    115b:	e9 c0 fe ff ff       	jmp    1020 <_init+0x20>

0000000000001160 <__fprintf_chk@plt>:
    1160:	ff 25 42 4e 00 00    	jmp    QWORD PTR [rip+0x4e42]        # 5fa8 <__fprintf_chk@GLIBC_2.3.4>
    1166:	68 13 00 00 00       	push   0x13
    116b:	e9 b0 fe ff ff       	jmp    1020 <_init+0x20>

0000000000001170 <__memcpy_chk@plt>:
    1170:	ff 25 3a 4e 00 00    	jmp    QWORD PTR [rip+0x4e3a]        # 5fb0 <__memcpy_chk@GLIBC_2.3.4>
    1176:	68 14 00 00 00       	push   0x14
    117b:	e9 a0 fe ff ff       	jmp    1020 <_init+0x20>

0000000000001180 <sqrtf@plt>:
    1180:	ff 25 32 4e 00 00    	jmp    QWORD PTR [rip+0x4e32]        # 5fb8 <sqrtf@GLIBC_2.2.5>
    1186:	68 15 00 00 00       	push   0x15
    118b:	e9 90 fe ff ff       	jmp    1020 <_init+0x20>

0000000000001190 <fwrite@plt>:
    1190:	ff 25 2a 4e 00 00    	jmp    QWORD PTR [rip+0x4e2a]        # 5fc0 <fwrite@GLIBC_2.2.5>
    1196:	68 16 00 00 00       	push   0x16
    119b:	e9 80 fe ff ff       	jmp    1020 <_init+0x20>

00000000000011a0 <close@plt>:
    11a0:	ff 25 22 4e 00 00    	jmp    QWORD PTR [rip+0x4e22]        # 5fc8 <close@GLIBC_2.2.5>
    11a6:	68 17 00 00 00       	push   0x17
    11ab:	e9 70 fe ff ff       	jmp    1020 <_init+0x20>

00000000000011b0 <__isoc23_strtol@plt>:
    11b0:	ff 25 1a 4e 00 00    	jmp    QWORD PTR [rip+0x4e1a]        # 5fd0 <__isoc23_strtol@GLIBC_2.38>
    11b6:	68 18 00 00 00       	push   0x18
    11bb:	e9 60 fe ff ff       	jmp    1020 <_init+0x20>

Disassembly of section .plt.got:

00000000000011c0 <__cxa_finalize@plt>:
    11c0:	ff 25 12 4e 00 00    	jmp    QWORD PTR [rip+0x4e12]        # 5fd8 <__cxa_finalize@GLIBC_2.2.5>
    11c6:	66 90                	xchg   ax,ax

Disassembly of section .text:

00000000000011d0 <main>:
    11d0:	f3 0f 1e fa          	endbr64
    11d4:	53                   	push   rbx
    11d5:	48 8b 7e 08          	mov    rdi,QWORD PTR [rsi+0x8]
    11d9:	48 89 f3             	mov    rbx,rsi
    11dc:	ba 0a 00 00 00       	mov    edx,0xa
    11e1:	31 f6                	xor    esi,esi
    11e3:	e8 c8 ff ff ff       	call   11b0 <__isoc23_strtol@plt>
    11e8:	48 8b 53 10          	mov    rdx,QWORD PTR [rbx+0x10]
    11ec:	b9 00 04 00 00       	mov    ecx,0x400
    11f1:	48 8d 3d 14 2e 00 00 	lea    rdi,[rip+0x2e14]        # 400c <_IO_stdin_used+0xc>
    11f8:	89 c6                	mov    esi,eax
    11fa:	e8 31 1b 00 00       	call   2d30 <_Z7testAllPKcjS0_j>
    11ff:	31 c0                	xor    eax,eax
    1201:	5b                   	pop    rbx
    1202:	c3                   	ret
    1203:	66 2e 0f 1f 84 00 00 	cs nop WORD PTR [rax+rax*1+0x0]
    120a:	00 00 00 
    120d:	0f 1f 00             	nop    DWORD PTR [rax]

0000000000001210 <_start>:
    1210:	f3 0f 1e fa          	endbr64
    1214:	31 ed                	xor    ebp,ebp
    1216:	49 89 d1             	mov    r9,rdx
    1219:	5e                   	pop    rsi
    121a:	48 89 e2             	mov    rdx,rsp
    121d:	48 83 e4 f0          	and    rsp,0xfffffffffffffff0
    1221:	50                   	push   rax
    1222:	54                   	push   rsp
    1223:	45 31 c0             	xor    r8d,r8d
    1226:	31 c9                	xor    ecx,ecx
    1228:	48 8d 3d a1 ff ff ff 	lea    rdi,[rip+0xffffffffffffffa1]        # 11d0 <main>
    122f:	ff 15 ab 4d 00 00    	call   QWORD PTR [rip+0x4dab]        # 5fe0 <__libc_start_main@GLIBC_2.34>
    1235:	f4                   	hlt
    1236:	66 2e 0f 1f 84 00 00 	cs nop WORD PTR [rax+rax*1+0x0]
    123d:	00 00 00 

0000000000001240 <deregister_tm_clones>:
    1240:	48 8d 3d c9 4d 00 00 	lea    rdi,[rip+0x4dc9]        # 6010 <__TMC_END__>
    1247:	48 8d 05 c2 4d 00 00 	lea    rax,[rip+0x4dc2]        # 6010 <__TMC_END__>
    124e:	48 39 f8             	cmp    rax,rdi
    1251:	74 15                	je     1268 <deregister_tm_clones+0x28>
    1253:	48 8b 05 8e 4d 00 00 	mov    rax,QWORD PTR [rip+0x4d8e]        # 5fe8 <_ITM_deregisterTMCloneTable@Base>
    125a:	48 85 c0             	test   rax,rax
    125d:	74 09                	je     1268 <deregister_tm_clones+0x28>
    125f:	ff e0                	jmp    rax
    1261:	0f 1f 80 00 00 00 00 	nop    DWORD PTR [rax+0x0]
    1268:	c3                   	ret
    1269:	0f 1f 80 00 00 00 00 	nop    DWORD PTR [rax+0x0]

0000000000001270 <register_tm_clones>:
    1270:	48 8d 3d 99 4d 00 00 	lea    rdi,[rip+0x4d99]        # 6010 <__TMC_END__>
    1277:	48 8d 35 92 4d 00 00 	lea    rsi,[rip+0x4d92]        # 6010 <__TMC_END__>
    127e:	48 29 fe             	sub    rsi,rdi
    1281:	48 89 f0             	mov    rax,rsi
    1284:	48 c1 ee 3f          	shr    rsi,0x3f
    1288:	48 c1 f8 03          	sar    rax,0x3
    128c:	48 01 c6             	add    rsi,rax
    128f:	48 d1 fe             	sar    rsi,1
    1292:	74 14                	je     12a8 <register_tm_clones+0x38>
    1294:	48 8b 05 5d 4d 00 00 	mov    rax,QWORD PTR [rip+0x4d5d]        # 5ff8 <_ITM_registerTMCloneTable@Base>
    129b:	48 85 c0             	test   rax,rax
    129e:	74 08                	je     12a8 <register_tm_clones+0x38>
    12a0:	ff e0                	jmp    rax
    12a2:	66 0f 1f 44 00 00    	nop    WORD PTR [rax+rax*1+0x0]
    12a8:	c3                   	ret
    12a9:	0f 1f 80 00 00 00 00 	nop    DWORD PTR [rax+0x0]

00000000000012b0 <__do_global_dtors_aux>:
    12b0:	f3 0f 1e fa          	endbr64
    12b4:	80 3d 55 4d 00 00 00 	cmp    BYTE PTR [rip+0x4d55],0x0        # 6010 <__TMC_END__>
    12bb:	75 2b                	jne    12e8 <__do_global_dtors_aux+0x38>
    12bd:	55                   	push   rbp
    12be:	48 83 3d 12 4d 00 00 	cmp    QWORD PTR [rip+0x4d12],0x0        # 5fd8 <__cxa_finalize@GLIBC_2.2.5>
    12c5:	00 
    12c6:	48 89 e5             	mov    rbp,rsp
    12c9:	74 0c                	je     12d7 <__do_global_dtors_aux+0x27>
    12cb:	48 8b 3d 36 4d 00 00 	mov    rdi,QWORD PTR [rip+0x4d36]        # 6008 <__dso_handle>
    12d2:	e8 e9 fe ff ff       	call   11c0 <__cxa_finalize@plt>
    12d7:	e8 64 ff ff ff       	call   1240 <deregister_tm_clones>
    12dc:	c6 05 2d 4d 00 00 01 	mov    BYTE PTR [rip+0x4d2d],0x1        # 6010 <__TMC_END__>
    12e3:	5d                   	pop    rbp
    12e4:	c3                   	ret
    12e5:	0f 1f 00             	nop    DWORD PTR [rax]
    12e8:	c3                   	ret
    12e9:	0f 1f 80 00 00 00 00 	nop    DWORD PTR [rax+0x0]

00000000000012f0 <frame_dummy>:
    12f0:	f3 0f 1e fa          	endbr64
    12f4:	e9 77 ff ff ff       	jmp    1270 <register_tm_clones>
    12f9:	0f 1f 80 00 00 00 00 	nop    DWORD PTR [rax+0x0]

0000000000001300 <_Z16buildStringArrayPcj>:
    1300:	f3 0f 1e fa          	endbr64
    1304:	55                   	push   rbp
    1305:	48 89 e5             	mov    rbp,rsp
    1308:	41 57                	push   r15
    130a:	41 56                	push   r14
    130c:	41 55                	push   r13
    130e:	41 54                	push   r12
    1310:	53                   	push   rbx
    1311:	48 83 e4 e0          	and    rsp,0xffffffffffffffe0
    1315:	48 83 ec 40          	sub    rsp,0x40
    1319:	48 85 ff             	test   rdi,rdi
    131c:	0f 84 26 01 00 00    	je     1448 <_Z16buildStringArrayPcj+0x148>
    1322:	41 89 f5             	mov    r13d,esi
    1325:	41 89 f6             	mov    r14d,esi
    1328:	49 89 fc             	mov    r12,rdi
    132b:	bf 40 00 00 00       	mov    edi,0x40
    1330:	49 c1 e6 06          	shl    r14,0x6
    1334:	44 89 eb             	mov    ebx,r13d
    1337:	4c 89 f6             	mov    rsi,r14
    133a:	c1 e3 05             	shl    ebx,0x5
    133d:	e8 5e fd ff ff       	call   10a0 <aligned_alloc@plt>
    1342:	48 89 de             	mov    rsi,rbx
    1345:	bf 20 00 00 00       	mov    edi,0x20
    134a:	48 89 44 24 10       	mov    QWORD PTR [rsp+0x10],rax
    134f:	e8 4c fd ff ff       	call   10a0 <aligned_alloc@plt>
    1354:	49 89 c7             	mov    r15,rax
    1357:	48 85 c0             	test   rax,rax
    135a:	0f 84 07 01 00 00    	je     1467 <_Z16buildStringArrayPcj+0x167>
    1360:	48 8b 44 24 10       	mov    rax,QWORD PTR [rsp+0x10]
    1365:	49 89 c0             	mov    r8,rax
    1368:	4c 01 f0             	add    rax,r14
    136b:	45 31 f6             	xor    r14d,r14d
    136e:	48 89 44 24 18       	mov    QWORD PTR [rsp+0x18],rax
    1373:	45 85 ed             	test   r13d,r13d
    1376:	75 0b                	jne    1383 <_Z16buildStringArrayPcj+0x83>
    1378:	e9 af 00 00 00       	jmp    142c <_Z16buildStringArrayPcj+0x12c>
    137d:	0f 1f 00             	nop    DWORD PTR [rax]
    1380:	c5 f8 77             	vzeroupper
    1383:	4c 89 e7             	mov    rdi,r12
    1386:	be 0a 00 00 00       	mov    esi,0xa
    138b:	4c 89 44 24 20       	mov    QWORD PTR [rsp+0x20],r8
    1390:	e8 bb fc ff ff       	call   1050 <strchr@plt>
    1395:	4c 89 e6             	mov    rsi,r12
    1398:	45 89 f2             	mov    r10d,r14d
    139b:	4c 8d 60 01          	lea    r12,[rax+0x1]
    139f:	4c 89 d1             	mov    rcx,r10
    13a2:	4f 8d 0c 17          	lea    r9,[r15+r10*1]
    13a6:	4c 89 54 24 28       	mov    QWORD PTR [rsp+0x28],r10
    13ab:	4d 89 e5             	mov    r13,r12
    13ae:	4c 89 cf             	mov    rdi,r9
    13b1:	4c 89 4c 24 38       	mov    QWORD PTR [rsp+0x38],r9
    13b6:	49 29 f5             	sub    r13,rsi
    13b9:	4c 39 d3             	cmp    rbx,r10
    13bc:	48 0f 43 cb          	cmovae rcx,rbx
    13c0:	44 89 ea             	mov    edx,r13d
    13c3:	48 89 54 24 30       	mov    QWORD PTR [rsp+0x30],rdx
    13c8:	4c 29 d1             	sub    rcx,r10
    13cb:	e8 90 fc ff ff       	call   1060 <__strncpy_chk@plt>
    13d0:	48 8b 54 24 30       	mov    rdx,QWORD PTR [rsp+0x30]
    13d5:	4c 8b 54 24 28       	mov    r10,QWORD PTR [rsp+0x28]
    13da:	4a 8d 3c 12          	lea    rdi,[rdx+r10*1]
    13de:	ba 20 00 00 00       	mov    edx,0x20
    13e3:	48 39 fb             	cmp    rbx,rdi
    13e6:	48 89 f9             	mov    rcx,rdi
    13e9:	48 0f 43 cb          	cmovae rcx,rbx
    13ed:	44 29 ea             	sub    edx,r13d
    13f0:	31 f6                	xor    esi,esi
    13f2:	41 83 c6 20          	add    r14d,0x20
    13f6:	48 29 f9             	sub    rcx,rdi
    13f9:	4c 01 ff             	add    rdi,r15
    13fc:	e8 1f fd ff ff       	call   1120 <__memset_chk@plt>
    1401:	4c 8b 4c 24 38       	mov    r9,QWORD PTR [rsp+0x38]
    1406:	4c 8b 44 24 20       	mov    r8,QWORD PTR [rsp+0x20]
    140b:	c4 c1 7d 6f 01       	vmovdqa ymm0,YMMWORD PTR [r9]
    1410:	45 89 68 24          	mov    DWORD PTR [r8+0x24],r13d
    1414:	49 83 c0 40          	add    r8,0x40
    1418:	c4 c1 7d 7f 40 c0    	vmovdqa YMMWORD PTR [r8-0x40],ymm0
    141e:	4c 39 44 24 18       	cmp    QWORD PTR [rsp+0x18],r8
    1423:	0f 85 57 ff ff ff    	jne    1380 <_Z16buildStringArrayPcj+0x80>
    1429:	c5 f8 77             	vzeroupper
    142c:	4c 89 ff             	mov    rdi,r15
    142f:	e8 cc fc ff ff       	call   1100 <free@plt>
    1434:	48 8b 44 24 10       	mov    rax,QWORD PTR [rsp+0x10]
    1439:	48 8d 65 d8          	lea    rsp,[rbp-0x28]
    143d:	5b                   	pop    rbx
    143e:	41 5c                	pop    r12
    1440:	41 5d                	pop    r13
    1442:	41 5e                	pop    r14
    1444:	41 5f                	pop    r15
    1446:	5d                   	pop    rbp
    1447:	c3                   	ret
    1448:	48 8d 0d e9 2d 00 00 	lea    rcx,[rip+0x2de9]        # 4238 <_IO_stdin_used+0x238>
    144f:	ba 15 00 00 00       	mov    edx,0x15
    1454:	48 8d 35 0d 2e 00 00 	lea    rsi,[rip+0x2e0d]        # 4268 <_IO_stdin_used+0x268>
    145b:	48 8d 3d bb 2b 00 00 	lea    rdi,[rip+0x2bbb]        # 401d <_IO_stdin_used+0x1d>
    1462:	e8 09 fc ff ff       	call   1070 <__assert_fail@plt>
    1467:	48 8d 0d ca 2d 00 00 	lea    rcx,[rip+0x2dca]        # 4238 <_IO_stdin_used+0x238>
    146e:	ba 1d 00 00 00       	mov    edx,0x1d
    1473:	48 8d 35 ee 2d 00 00 	lea    rsi,[rip+0x2dee]        # 4268 <_IO_stdin_used+0x268>
    147a:	48 8d 3d 94 2b 00 00 	lea    rdi,[rip+0x2b94]        # 4015 <_IO_stdin_used+0x15>
    1481:	e8 ea fb ff ff       	call   1070 <__assert_fail@plt>
    1486:	66 2e 0f 1f 84 00 00 	cs nop WORD PTR [rax+rax*1+0x0]
    148d:	00 00 00 

0000000000001490 <_Z11hashMapCtorPFj8string_tEj>:
    1490:	f3 0f 1e fa          	endbr64
    1494:	55                   	push   rbp
    1495:	48 89 e5             	mov    rbp,rsp
    1498:	41 56                	push   r14
    149a:	41 89 d6             	mov    r14d,edx
    149d:	41 55                	push   r13
    149f:	41 54                	push   r12
    14a1:	49 89 fc             	mov    r12,rdi
    14a4:	53                   	push   rbx
    14a5:	48 83 e4 e0          	and    rsp,0xffffffffffffffe0
    14a9:	48 83 ec 40          	sub    rsp,0x40
    14ad:	64 48 8b 04 25 28 00 	mov    rax,QWORD PTR fs:0x28
    14b4:	00 00 
    14b6:	48 89 44 24 38       	mov    QWORD PTR [rsp+0x38],rax
    14bb:	31 c0                	xor    eax,eax
    14bd:	48 89 77 10          	mov    QWORD PTR [rdi+0x10],rsi
    14c1:	be 18 00 00 00       	mov    esi,0x18
    14c6:	c7 47 0c 00 00 00 00 	mov    DWORD PTR [rdi+0xc],0x0
    14cd:	44 89 77 08          	mov    DWORD PTR [rdi+0x8],r14d
    14d1:	4c 89 f7             	mov    rdi,r14
    14d4:	e8 a7 fb ff ff       	call   1080 <calloc@plt>
    14d9:	49 89 04 24          	mov    QWORD PTR [r12],rax
    14dd:	45 85 f6             	test   r14d,r14d
    14e0:	74 32                	je     1514 <_Z11hashMapCtorPFj8string_tEj+0x84>
    14e2:	48 89 c3             	mov    rbx,rax
    14e5:	4b 8d 04 76          	lea    rax,[r14+r14*2]
    14e9:	49 89 e5             	mov    r13,rsp
    14ec:	4c 8d 34 c3          	lea    r14,[rbx+rax*8]
    14f0:	4c 89 ef             	mov    rdi,r13
    14f3:	48 83 c3 18          	add    rbx,0x18
    14f7:	e8 a4 09 00 00       	call   1ea0 <_Z8listCtorv>
    14fc:	c5 fa 6f 04 24       	vmovdqu xmm0,XMMWORD PTR [rsp]
    1501:	c5 fa 7f 43 e8       	vmovdqu XMMWORD PTR [rbx-0x18],xmm0
    1506:	48 8b 44 24 10       	mov    rax,QWORD PTR [rsp+0x10]
    150b:	48 89 43 f8          	mov    QWORD PTR [rbx-0x8],rax
    150f:	4c 39 f3             	cmp    rbx,r14
    1512:	75 dc                	jne    14f0 <_Z11hashMapCtorPFj8string_tEj+0x60>
    1514:	48 8b 44 24 38       	mov    rax,QWORD PTR [rsp+0x38]
    1519:	64 48 2b 04 25 28 00 	sub    rax,QWORD PTR fs:0x28
    1520:	00 00 
    1522:	75 10                	jne    1534 <_Z11hashMapCtorPFj8string_tEj+0xa4>
    1524:	48 8d 65 e0          	lea    rsp,[rbp-0x20]
    1528:	4c 89 e0             	mov    rax,r12
    152b:	5b                   	pop    rbx
    152c:	41 5c                	pop    r12
    152e:	41 5d                	pop    r13
    1530:	41 5e                	pop    r14
    1532:	5d                   	pop    rbp
    1533:	c3                   	ret
    1534:	e8 a7 fb ff ff       	call   10e0 <__stack_chk_fail@plt>
    1539:	0f 1f 80 00 00 00 00 	nop    DWORD PTR [rax+0x0]

0000000000001540 <_Z17hashMapAddElementP7HashMap8string_t>:
    1540:	f3 0f 1e fa          	endbr64
    1544:	55                   	push   rbp
    1545:	53                   	push   rbx
    1546:	48 83 ec 08          	sub    rsp,0x8
    154a:	48 85 ff             	test   rdi,rdi
    154d:	0f 84 9b 00 00 00    	je     15ee <_Z17hashMapAddElementP7HashMap8string_t+0xae>
    1553:	48 83 ec 40          	sub    rsp,0x40
    1557:	48 89 fb             	mov    rbx,rdi
    155a:	c5 fd 6f 9c 24 80 00 	vmovdqa ymm3,YMMWORD PTR [rsp+0x80]
    1561:	00 00 
    1563:	c5 fd 6f 54 24 60    	vmovdqa ymm2,YMMWORD PTR [rsp+0x60]
    1569:	c5 fd 7f 5c 24 20    	vmovdqa YMMWORD PTR [rsp+0x20],ymm3
    156f:	c5 fd 7f 14 24       	vmovdqa YMMWORD PTR [rsp],ymm2
    1574:	c5 f8 77             	vzeroupper
    1577:	ff 57 10             	call   QWORD PTR [rdi+0x10]
    157a:	31 d2                	xor    edx,edx
    157c:	c5 fd 6f 64 24 60    	vmovdqa ymm4,YMMWORD PTR [rsp+0x60]
    1582:	89 c1                	mov    ecx,eax
    1584:	f7 73 08             	div    DWORD PTR [rbx+0x8]
    1587:	89 8c 24 80 00 00 00 	mov    DWORD PTR [rsp+0x80],ecx
    158e:	c5 fd 6f ac 24 80 00 	vmovdqa ymm5,YMMWORD PTR [rsp+0x80]
    1595:	00 00 
    1597:	89 d0                	mov    eax,edx
    1599:	48 8d 14 40          	lea    rdx,[rax+rax*2]
    159d:	48 89 c5             	mov    rbp,rax
    15a0:	48 8b 03             	mov    rax,QWORD PTR [rbx]
    15a3:	c5 fd 7f 24 24       	vmovdqa YMMWORD PTR [rsp],ymm4
    15a8:	c5 fd 7f 6c 24 20    	vmovdqa YMMWORD PTR [rsp+0x20],ymm5
    15ae:	48 8d 3c d0          	lea    rdi,[rax+rdx*8]
    15b2:	c5 f8 77             	vzeroupper
    15b5:	e8 56 09 00 00       	call   1f10 <_Z12pushListElemP4List8string_t>
    15ba:	48 83 c4 40          	add    rsp,0x40
    15be:	83 f8 01             	cmp    eax,0x1
    15c1:	75 22                	jne    15e5 <_Z17hashMapAddElementP7HashMap8string_t+0xa5>
    15c3:	8b 43 08             	mov    eax,DWORD PTR [rbx+0x8]
    15c6:	c5 f8 57 c0          	vxorps xmm0,xmm0,xmm0
    15ca:	c4 e1 fa 2a c0       	vcvtsi2ss xmm0,xmm0,rax
    15cf:	c5 fa 59 4b 0c       	vmulss xmm1,xmm0,DWORD PTR [rbx+0xc]
    15d4:	c5 f2 58 0d 28 2a 00 	vaddss xmm1,xmm1,DWORD PTR [rip+0x2a28]        # 4004 <_IO_stdin_used+0x4>
    15db:	00 
    15dc:	c5 f2 5e c0          	vdivss xmm0,xmm1,xmm0
    15e0:	c5 fa 11 43 0c       	vmovss DWORD PTR [rbx+0xc],xmm0
    15e5:	48 83 c4 08          	add    rsp,0x8
    15e9:	89 e8                	mov    eax,ebp
    15eb:	5b                   	pop    rbx
    15ec:	5d                   	pop    rbp
    15ed:	c3                   	ret
    15ee:	48 8d 0d 93 2c 00 00 	lea    rcx,[rip+0x2c93]        # 4288 <_IO_stdin_used+0x288>
    15f5:	ba 4f 00 00 00       	mov    edx,0x4f
    15fa:	48 8d 35 67 2c 00 00 	lea    rsi,[rip+0x2c67]        # 4268 <_IO_stdin_used+0x268>
    1601:	48 8d 3d 1a 2a 00 00 	lea    rdi,[rip+0x2a1a]        # 4022 <_IO_stdin_used+0x22>
    1608:	e8 63 fa ff ff       	call   1070 <__assert_fail@plt>
    160d:	0f 1f 00             	nop    DWORD PTR [rax]

0000000000001610 <_Z17hashMapPopElementP7HashMap8string_t>:
    1610:	f3 0f 1e fa          	endbr64
    1614:	55                   	push   rbp
    1615:	53                   	push   rbx
    1616:	48 83 ec 08          	sub    rsp,0x8
    161a:	48 85 ff             	test   rdi,rdi
    161d:	0f 84 a9 00 00 00    	je     16cc <_Z17hashMapPopElementP7HashMap8string_t+0xbc>
    1623:	48 83 ec 40          	sub    rsp,0x40
    1627:	48 89 fb             	mov    rbx,rdi
    162a:	c5 fd 6f 9c 24 80 00 	vmovdqa ymm3,YMMWORD PTR [rsp+0x80]
    1631:	00 00 
    1633:	c5 fd 6f 54 24 60    	vmovdqa ymm2,YMMWORD PTR [rsp+0x60]
    1639:	c5 fd 7f 5c 24 20    	vmovdqa YMMWORD PTR [rsp+0x20],ymm3
    163f:	c5 fd 7f 14 24       	vmovdqa YMMWORD PTR [rsp],ymm2
    1644:	c5 f8 77             	vzeroupper
    1647:	ff 57 10             	call   QWORD PTR [rdi+0x10]
    164a:	31 d2                	xor    edx,edx
    164c:	c5 fd 6f 64 24 60    	vmovdqa ymm4,YMMWORD PTR [rsp+0x60]
    1652:	89 c1                	mov    ecx,eax
    1654:	f7 73 08             	div    DWORD PTR [rbx+0x8]
    1657:	89 8c 24 80 00 00 00 	mov    DWORD PTR [rsp+0x80],ecx
    165e:	c5 fd 6f ac 24 80 00 	vmovdqa ymm5,YMMWORD PTR [rsp+0x80]
    1665:	00 00 
    1667:	89 d0                	mov    eax,edx
    1669:	48 8d 14 40          	lea    rdx,[rax+rax*2]
    166d:	48 89 c5             	mov    rbp,rax
    1670:	48 8b 03             	mov    rax,QWORD PTR [rbx]
    1673:	c5 fd 7f 24 24       	vmovdqa YMMWORD PTR [rsp],ymm4
    1678:	c5 fd 7f 6c 24 20    	vmovdqa YMMWORD PTR [rsp+0x20],ymm5
    167e:	48 8d 3c d0          	lea    rdi,[rax+rdx*8]
    1682:	c5 f8 77             	vzeroupper
    1685:	e8 26 0a 00 00       	call   20b0 <_Z11popListElemP4List8string_t>
    168a:	48 83 c4 40          	add    rsp,0x40
    168e:	85 c0                	test   eax,eax
    1690:	74 2e                	je     16c0 <_Z17hashMapPopElementP7HashMap8string_t+0xb0>
    1692:	8b 43 08             	mov    eax,DWORD PTR [rbx+0x8]
    1695:	c5 f8 57 c0          	vxorps xmm0,xmm0,xmm0
    1699:	c4 e1 fa 2a c0       	vcvtsi2ss xmm0,xmm0,rax
    169e:	c5 fa 59 4b 0c       	vmulss xmm1,xmm0,DWORD PTR [rbx+0xc]
    16a3:	89 e8                	mov    eax,ebp
    16a5:	c5 f2 5c 0d 57 29 00 	vsubss xmm1,xmm1,DWORD PTR [rip+0x2957]        # 4004 <_IO_stdin_used+0x4>
    16ac:	00 
    16ad:	c5 f2 5e c0          	vdivss xmm0,xmm1,xmm0
    16b1:	c5 fa 11 43 0c       	vmovss DWORD PTR [rbx+0xc],xmm0
    16b6:	48 83 c4 08          	add    rsp,0x8
    16ba:	5b                   	pop    rbx
    16bb:	5d                   	pop    rbp
    16bc:	c3                   	ret
    16bd:	0f 1f 00             	nop    DWORD PTR [rax]
    16c0:	8b 6b 08             	mov    ebp,DWORD PTR [rbx+0x8]
    16c3:	48 83 c4 08          	add    rsp,0x8
    16c7:	5b                   	pop    rbx
    16c8:	89 e8                	mov    eax,ebp
    16ca:	5d                   	pop    rbp
    16cb:	c3                   	ret
    16cc:	48 8d 0d e5 2b 00 00 	lea    rcx,[rip+0x2be5]        # 42b8 <_IO_stdin_used+0x2b8>
    16d3:	ba 5d 00 00 00       	mov    edx,0x5d
    16d8:	48 8d 35 89 2b 00 00 	lea    rsi,[rip+0x2b89]        # 4268 <_IO_stdin_used+0x268>
    16df:	48 8d 3d 3c 29 00 00 	lea    rdi,[rip+0x293c]        # 4022 <_IO_stdin_used+0x22>
    16e6:	e8 85 f9 ff ff       	call   1070 <__assert_fail@plt>
    16eb:	0f 1f 44 00 00       	nop    DWORD PTR [rax+rax*1+0x0]

00000000000016f0 <_Z20hashMapSearchElementP7HashMap8string_t>:
    16f0:	f3 0f 1e fa          	endbr64
    16f4:	48 83 ec 18          	sub    rsp,0x18
    16f8:	c5 fd 6f 44 24 20    	vmovdqa ymm0,YMMWORD PTR [rsp+0x20]
    16fe:	48 85 ff             	test   rdi,rdi
    1701:	0f 84 8d 00 00 00    	je     1794 <_Z20hashMapSearchElementP7HashMap8string_t+0xa4>
    1707:	b9 11 11 11 21       	mov    ecx,0x21111111
    170c:	c4 c1 f9 7e c0       	vmovq  r8,xmm0
    1711:	48 89 fe             	mov    rsi,rdi
    1714:	48 83 ec 40          	sub    rsp,0x40
    1718:	89 c8                	mov    eax,ecx
    171a:	c4 e3 f9 16 c7 01    	vpextrq rdi,xmm0,0x1
    1720:	c4 e3 7d 39 c0 01    	vextracti128 xmm0,ymm0,0x1
    1726:	c5 fd 6f 54 24 60    	vmovdqa ymm2,YMMWORD PTR [rsp+0x60]
    172c:	f2 49 0f 38 f1 c0    	crc32  rax,r8
    1732:	41 89 c8             	mov    r8d,ecx
    1735:	c4 e3 f9 16 c2 01    	vpextrq rdx,xmm0,0x1
    173b:	c5 fd 6f 9c 24 80 00 	vmovdqa ymm3,YMMWORD PTR [rsp+0x80]
    1742:	00 00 
    1744:	c4 c1 f9 7e c1       	vmovq  r9,xmm0
    1749:	f2 4c 0f 38 f1 c7    	crc32  r8,rdi
    174f:	89 cf                	mov    edi,ecx
    1751:	44 01 c0             	add    eax,r8d
    1754:	f2 49 0f 38 f1 f9    	crc32  rdi,r9
    175a:	f2 48 0f 38 f1 ca    	crc32  rcx,rdx
    1760:	8b 56 08             	mov    edx,DWORD PTR [rsi+0x8]
    1763:	01 f8                	add    eax,edi
    1765:	01 c8                	add    eax,ecx
    1767:	83 ea 01             	sub    edx,0x1
    176a:	21 d0                	and    eax,edx
    176c:	48 8d 14 40          	lea    rdx,[rax+rax*2]
    1770:	48 8b 06             	mov    rax,QWORD PTR [rsi]
    1773:	c5 fd 7f 14 24       	vmovdqa YMMWORD PTR [rsp],ymm2
    1778:	c5 fd 7f 5c 24 20    	vmovdqa YMMWORD PTR [rsp+0x20],ymm3
    177e:	48 8d 3c d0          	lea    rdi,[rax+rdx*8]
    1782:	c5 f8 77             	vzeroupper
    1785:	e8 e6 09 00 00       	call   2170 <_Z13searchElementP4List8string_t>
    178a:	85 c0                	test   eax,eax
    178c:	0f 95 c0             	setne  al
    178f:	48 83 c4 58          	add    rsp,0x58
    1793:	c3                   	ret
    1794:	48 8d 0d 4d 2b 00 00 	lea    rcx,[rip+0x2b4d]        # 42e8 <_IO_stdin_used+0x2e8>
    179b:	ba 6a 00 00 00       	mov    edx,0x6a
    17a0:	48 8d 35 c1 2a 00 00 	lea    rsi,[rip+0x2ac1]        # 4268 <_IO_stdin_used+0x268>
    17a7:	48 8d 3d 74 28 00 00 	lea    rdi,[rip+0x2874]        # 4022 <_IO_stdin_used+0x22>
    17ae:	c5 f8 77             	vzeroupper
    17b1:	e8 ba f8 ff ff       	call   1070 <__assert_fail@plt>
    17b6:	66 2e 0f 1f 84 00 00 	cs nop WORD PTR [rax+rax*1+0x0]
    17bd:	00 00 00 

00000000000017c0 <_Z13getLoadFactorP7HashMap>:
    17c0:	f3 0f 1e fa          	endbr64
    17c4:	48 85 ff             	test   rdi,rdi
    17c7:	74 06                	je     17cf <_Z13getLoadFactorP7HashMap+0xf>
    17c9:	c5 fa 10 47 0c       	vmovss xmm0,DWORD PTR [rdi+0xc]
    17ce:	c3                   	ret
    17cf:	50                   	push   rax
    17d0:	48 8d 0d 53 28 00 00 	lea    rcx,[rip+0x2853]        # 402a <_IO_stdin_used+0x2a>
    17d7:	ba a8 00 00 00       	mov    edx,0xa8
    17dc:	48 8d 35 85 2a 00 00 	lea    rsi,[rip+0x2a85]        # 4268 <_IO_stdin_used+0x268>
    17e3:	48 8d 3d 38 28 00 00 	lea    rdi,[rip+0x2838]        # 4022 <_IO_stdin_used+0x22>
    17ea:	e8 81 f8 ff ff       	call   1070 <__assert_fail@plt>
    17ef:	90                   	nop

00000000000017f0 <_Z11hashMapDtorP7HashMap>:
    17f0:	f3 0f 1e fa          	endbr64
    17f4:	55                   	push   rbp
    17f5:	53                   	push   rbx
    17f6:	48 83 ec 08          	sub    rsp,0x8
    17fa:	48 85 ff             	test   rdi,rdi
    17fd:	74 3a                	je     1839 <_Z11hashMapDtorP7HashMap+0x49>
    17ff:	8b 47 08             	mov    eax,DWORD PTR [rdi+0x8]
    1802:	48 89 fd             	mov    rbp,rdi
    1805:	31 db                	xor    ebx,ebx
    1807:	85 c0                	test   eax,eax
    1809:	74 1f                	je     182a <_Z11hashMapDtorP7HashMap+0x3a>
    180b:	0f 1f 44 00 00       	nop    DWORD PTR [rax+rax*1+0x0]
    1810:	48 8b 45 00          	mov    rax,QWORD PTR [rbp+0x0]
    1814:	48 8d 14 5b          	lea    rdx,[rbx+rbx*2]
    1818:	48 83 c3 01          	add    rbx,0x1
    181c:	48 8d 3c d0          	lea    rdi,[rax+rdx*8]
    1820:	e8 ab 09 00 00       	call   21d0 <_Z8listDtorP4List>
    1825:	3b 5d 08             	cmp    ebx,DWORD PTR [rbp+0x8]
    1828:	72 e6                	jb     1810 <_Z11hashMapDtorP7HashMap+0x20>
    182a:	48 8b 7d 00          	mov    rdi,QWORD PTR [rbp+0x0]
    182e:	48 83 c4 08          	add    rsp,0x8
    1832:	5b                   	pop    rbx
    1833:	5d                   	pop    rbp
    1834:	e9 c7 f8 ff ff       	jmp    1100 <free@plt>
    1839:	48 8d 0d 08 28 00 00 	lea    rcx,[rip+0x2808]        # 4048 <_IO_stdin_used+0x48>
    1840:	ba ae 00 00 00       	mov    edx,0xae
    1845:	48 8d 35 1c 2a 00 00 	lea    rsi,[rip+0x2a1c]        # 4268 <_IO_stdin_used+0x268>
    184c:	48 8d 3d cf 27 00 00 	lea    rdi,[rip+0x27cf]        # 4022 <_IO_stdin_used+0x22>
    1853:	e8 18 f8 ff ff       	call   1070 <__assert_fail@plt>
    1858:	0f 1f 84 00 00 00 00 	nop    DWORD PTR [rax+rax*1+0x0]
    185f:	00 

0000000000001860 <_Z6resizeP7HashMapj>:
    1860:	f3 0f 1e fa          	endbr64
    1864:	4c 8d 54 24 08       	lea    r10,[rsp+0x8]
    1869:	48 83 e4 e0          	and    rsp,0xffffffffffffffe0
    186d:	41 ff 72 f8          	push   QWORD PTR [r10-0x8]
    1871:	55                   	push   rbp
    1872:	48 89 e5             	mov    rbp,rsp
    1875:	41 57                	push   r15
    1877:	41 56                	push   r14
    1879:	41 55                	push   r13
    187b:	41 54                	push   r12
    187d:	41 52                	push   r10
    187f:	53                   	push   rbx
    1880:	48 81 ec e0 00 00 00 	sub    rsp,0xe0
    1887:	48 89 bd 00 ff ff ff 	mov    QWORD PTR [rbp-0x100],rdi
    188e:	64 48 8b 04 25 28 00 	mov    rax,QWORD PTR fs:0x28
    1895:	00 00 
    1897:	48 89 45 c8          	mov    QWORD PTR [rbp-0x38],rax
    189b:	31 c0                	xor    eax,eax
    189d:	48 85 f6             	test   rsi,rsi
    18a0:	0f 84 e2 01 00 00    	je     1a88 <_Z6resizeP7HashMapj+0x228>
    18a6:	48 8b 46 10          	mov    rax,QWORD PTR [rsi+0x10]
    18aa:	89 57 08             	mov    DWORD PTR [rdi+0x8],edx
    18ad:	49 89 ff             	mov    r15,rdi
    18b0:	49 89 f4             	mov    r12,rsi
    18b3:	be 18 00 00 00       	mov    esi,0x18
    18b8:	89 d3                	mov    ebx,edx
    18ba:	48 89 47 10          	mov    QWORD PTR [rdi+0x10],rax
    18be:	89 d0                	mov    eax,edx
    18c0:	48 89 c7             	mov    rdi,rax
    18c3:	48 89 85 f8 fe ff ff 	mov    QWORD PTR [rbp-0x108],rax
    18ca:	e8 b1 f7 ff ff       	call   1080 <calloc@plt>
    18cf:	49 89 07             	mov    QWORD PTR [r15],rax
    18d2:	49 89 c6             	mov    r14,rax
    18d5:	85 db                	test   ebx,ebx
    18d7:	74 55                	je     192e <_Z6resizeP7HashMapj+0xce>
    18d9:	49 89 c5             	mov    r13,rax
    18dc:	48 8b 85 f8 fe ff ff 	mov    rax,QWORD PTR [rbp-0x108]
    18e3:	48 8d 14 40          	lea    rdx,[rax+rax*2]
    18e7:	48 8d 85 10 ff ff ff 	lea    rax,[rbp-0xf0]
    18ee:	48 89 85 08 ff ff ff 	mov    QWORD PTR [rbp-0xf8],rax
    18f5:	4d 8d 3c d6          	lea    r15,[r14+rdx*8]
    18f9:	0f 1f 80 00 00 00 00 	nop    DWORD PTR [rax+0x0]
    1900:	48 8b bd 08 ff ff ff 	mov    rdi,QWORD PTR [rbp-0xf8]
    1907:	49 83 c5 18          	add    r13,0x18
    190b:	e8 90 05 00 00       	call   1ea0 <_Z8listCtorv>
    1910:	c5 fa 6f 9d 10 ff ff 	vmovdqu xmm3,XMMWORD PTR [rbp-0xf0]
    1917:	ff 
    1918:	c4 c1 7a 7f 5d e8    	vmovdqu XMMWORD PTR [r13-0x18],xmm3
    191e:	48 8b 95 20 ff ff ff 	mov    rdx,QWORD PTR [rbp-0xe0]
    1925:	49 89 55 f8          	mov    QWORD PTR [r13-0x8],rdx
    1929:	4d 39 ef             	cmp    r15,r13
    192c:	75 d2                	jne    1900 <_Z6resizeP7HashMapj+0xa0>
    192e:	c5 f8 57 c0          	vxorps xmm0,xmm0,xmm0
    1932:	c4 c1 7a 10 4c 24 0c 	vmovss xmm1,DWORD PTR [r12+0xc]
    1939:	41 8b 44 24 08       	mov    eax,DWORD PTR [r12+0x8]
    193e:	48 c7 85 08 ff ff ff 	mov    QWORD PTR [rbp-0xf8],0x0
    1945:	00 00 00 00 
    1949:	c4 e1 fa 2a 95 f8 fe 	vcvtsi2ss xmm2,xmm0,QWORD PTR [rbp-0x108]
    1950:	ff ff 
    1952:	49 8b 3c 24          	mov    rdi,QWORD PTR [r12]
    1956:	c4 e1 fa 2a c0       	vcvtsi2ss xmm0,xmm0,rax
    195b:	48 89 c1             	mov    rcx,rax
    195e:	48 8b 85 00 ff ff ff 	mov    rax,QWORD PTR [rbp-0x100]
    1965:	48 89 fe             	mov    rsi,rdi
    1968:	c5 f2 5e ca          	vdivss xmm1,xmm1,xmm2
    196c:	c5 f2 59 c8          	vmulss xmm1,xmm1,xmm0
    1970:	c5 fa 11 48 0c       	vmovss DWORD PTR [rax+0xc],xmm1
    1975:	85 c9                	test   ecx,ecx
    1977:	0f 84 db 00 00 00    	je     1a58 <_Z6resizeP7HashMapj+0x1f8>
    197d:	0f 1f 00             	nop    DWORD PTR [rax]
    1980:	48 8b 85 08 ff ff ff 	mov    rax,QWORD PTR [rbp-0xf8]
    1987:	48 8d 04 40          	lea    rax,[rax+rax*2]
    198b:	4c 8d 2c c5 00 00 00 	lea    r13,[rax*8+0x0]
    1992:	00 
    1993:	48 8b 04 c7          	mov    rax,QWORD PTR [rdi+rax*8]
    1997:	8b 10                	mov    edx,DWORD PTR [rax]
    1999:	85 d2                	test   edx,edx
    199b:	74 78                	je     1a15 <_Z6resizeP7HashMapj+0x1b5>
    199d:	0f 1f 00             	nop    DWORD PTR [rax]
    19a0:	89 d1                	mov    ecx,edx
    19a2:	31 d2                	xor    edx,edx
    19a4:	48 83 ec 40          	sub    rsp,0x40
    19a8:	48 c1 e1 07          	shl    rcx,0x7
    19ac:	48 01 c8             	add    rax,rcx
    19af:	49 89 cf             	mov    r15,rcx
    19b2:	c5 fd 6f 48 40       	vmovdqa ymm1,YMMWORD PTR [rax+0x40]
    19b7:	c5 fd 6f 40 60       	vmovdqa ymm0,YMMWORD PTR [rax+0x60]
    19bc:	8b 40 60             	mov    eax,DWORD PTR [rax+0x60]
    19bf:	c5 fd 7f 8d 30 ff ff 	vmovdqa YMMWORD PTR [rbp-0xd0],ymm1
    19c6:	ff 
    19c7:	f7 f3                	div    ebx
    19c9:	c5 fd 7f 85 50 ff ff 	vmovdqa YMMWORD PTR [rbp-0xb0],ymm0
    19d0:	ff 
    19d1:	c5 fd 7f 8d 70 ff ff 	vmovdqa YMMWORD PTR [rbp-0x90],ymm1
    19d8:	ff 
    19d9:	c5 fd 7f 45 90       	vmovdqa YMMWORD PTR [rbp-0x70],ymm0
    19de:	c5 fd 7f 0c 24       	vmovdqa YMMWORD PTR [rsp],ymm1
    19e3:	c5 fd 7f 44 24 20    	vmovdqa YMMWORD PTR [rsp+0x20],ymm0
    19e9:	48 8d 04 52          	lea    rax,[rdx+rdx*2]
    19ed:	c5 f8 77             	vzeroupper
    19f0:	49 8d 3c c6          	lea    rdi,[r14+rax*8]
    19f4:	e8 17 05 00 00       	call   1f10 <_Z12pushListElemP4List8string_t>
    19f9:	49 8b 3c 24          	mov    rdi,QWORD PTR [r12]
    19fd:	48 83 c4 40          	add    rsp,0x40
    1a01:	4a 8b 04 2f          	mov    rax,QWORD PTR [rdi+r13*1]
    1a05:	48 89 fe             	mov    rsi,rdi
    1a08:	42 8b 14 38          	mov    edx,DWORD PTR [rax+r15*1]
    1a0c:	85 d2                	test   edx,edx
    1a0e:	75 90                	jne    19a0 <_Z6resizeP7HashMapj+0x140>
    1a10:	41 8b 4c 24 08       	mov    ecx,DWORD PTR [r12+0x8]
    1a15:	48 83 85 08 ff ff ff 	add    QWORD PTR [rbp-0xf8],0x1
    1a1c:	01 
    1a1d:	48 8b 85 08 ff ff ff 	mov    rax,QWORD PTR [rbp-0xf8]
    1a24:	39 c8                	cmp    eax,ecx
    1a26:	0f 82 54 ff ff ff    	jb     1980 <_Z6resizeP7HashMapj+0x120>
    1a2c:	85 c9                	test   ecx,ecx
    1a2e:	74 28                	je     1a58 <_Z6resizeP7HashMapj+0x1f8>
    1a30:	31 db                	xor    ebx,ebx
    1a32:	eb 08                	jmp    1a3c <_Z6resizeP7HashMapj+0x1dc>
    1a34:	0f 1f 40 00          	nop    DWORD PTR [rax+0x0]
    1a38:	49 8b 34 24          	mov    rsi,QWORD PTR [r12]
    1a3c:	48 8d 04 5b          	lea    rax,[rbx+rbx*2]
    1a40:	48 83 c3 01          	add    rbx,0x1
    1a44:	48 8d 3c c6          	lea    rdi,[rsi+rax*8]
    1a48:	e8 83 07 00 00       	call   21d0 <_Z8listDtorP4List>
    1a4d:	41 3b 5c 24 08       	cmp    ebx,DWORD PTR [r12+0x8]
    1a52:	72 e4                	jb     1a38 <_Z6resizeP7HashMapj+0x1d8>
    1a54:	49 8b 3c 24          	mov    rdi,QWORD PTR [r12]
    1a58:	e8 a3 f6 ff ff       	call   1100 <free@plt>
    1a5d:	48 8b 45 c8          	mov    rax,QWORD PTR [rbp-0x38]
    1a61:	64 48 2b 04 25 28 00 	sub    rax,QWORD PTR fs:0x28
    1a68:	00 00 
    1a6a:	75 3b                	jne    1aa7 <_Z6resizeP7HashMapj+0x247>
    1a6c:	48 8b 85 00 ff ff ff 	mov    rax,QWORD PTR [rbp-0x100]
    1a73:	48 8d 65 d0          	lea    rsp,[rbp-0x30]
    1a77:	5b                   	pop    rbx
    1a78:	41 5a                	pop    r10
    1a7a:	41 5c                	pop    r12
    1a7c:	41 5d                	pop    r13
    1a7e:	41 5e                	pop    r14
    1a80:	41 5f                	pop    r15
    1a82:	5d                   	pop    rbp
    1a83:	49 8d 62 f8          	lea    rsp,[r10-0x8]
    1a87:	c3                   	ret
    1a88:	48 8d 0d 89 28 00 00 	lea    rcx,[rip+0x2889]        # 4318 <_IO_stdin_used+0x318>
    1a8f:	ba c2 00 00 00       	mov    edx,0xc2
    1a94:	48 8d 35 cd 27 00 00 	lea    rsi,[rip+0x27cd]        # 4268 <_IO_stdin_used+0x268>
    1a9b:	48 8d 3d 80 25 00 00 	lea    rdi,[rip+0x2580]        # 4022 <_IO_stdin_used+0x22>
    1aa2:	e8 c9 f5 ff ff       	call   1070 <__assert_fail@plt>
    1aa7:	e8 34 f6 ff ff       	call   10e0 <__stack_chk_fail@plt>
    1aac:	0f 1f 40 00          	nop    DWORD PTR [rax+0x0]

0000000000001ab0 <_Z15crc32HashString8string_t>:
    1ab0:	f3 0f 1e fa          	endbr64
    1ab4:	31 c0                	xor    eax,eax
    1ab6:	c3                   	ret
    1ab7:	66 0f 1f 84 00 00 00 	nop    WORD PTR [rax+rax*1+0x0]
    1abe:	00 00 

0000000000001ac0 <_Z19_mm_crc32HashString8string_t>:
    1ac0:	f3 0f 1e fa          	endbr64
    1ac4:	31 c0                	xor    eax,eax
    1ac6:	c3                   	ret
    1ac7:	66 0f 1f 84 00 00 00 	nop    WORD PTR [rax+rax*1+0x0]
    1ace:	00 00 

0000000000001ad0 <_Z25_mm_crc32UnrollHashString8string_t>:
    1ad0:	f3 0f 1e fa          	endbr64
    1ad4:	c5 f9 6f 44 24 08    	vmovdqa xmm0,XMMWORD PTR [rsp+0x8]
    1ada:	b9 11 11 11 21       	mov    ecx,0x21111111
    1adf:	c5 fd 6f 4c 24 08    	vmovdqa ymm1,YMMWORD PTR [rsp+0x8]
    1ae5:	89 c8                	mov    eax,ecx
    1ae7:	c4 e1 f9 7e c7       	vmovq  rdi,xmm0
    1aec:	c4 e3 f9 16 c6 01    	vpextrq rsi,xmm0,0x1
    1af2:	c4 e3 7d 39 c8 01    	vextracti128 xmm0,ymm1,0x1
    1af8:	f2 48 0f 38 f1 c7    	crc32  rax,rdi
    1afe:	89 cf                	mov    edi,ecx
    1b00:	c4 c1 f9 7e c0       	vmovq  r8,xmm0
    1b05:	f2 48 0f 38 f1 fe    	crc32  rdi,rsi
    1b0b:	89 ce                	mov    esi,ecx
    1b0d:	c4 e3 f9 16 c2 01    	vpextrq rdx,xmm0,0x1
    1b13:	01 f8                	add    eax,edi
    1b15:	f2 49 0f 38 f1 f0    	crc32  rsi,r8
    1b1b:	f2 48 0f 38 f1 ca    	crc32  rcx,rdx
    1b21:	01 f0                	add    eax,esi
    1b23:	01 c8                	add    eax,ecx
    1b25:	c5 f8 77             	vzeroupper
    1b28:	c3                   	ret
    1b29:	0f 1f 80 00 00 00 00 	nop    DWORD PTR [rax+0x0]

0000000000001b30 <_Z17murmur2HashString8string_t>:
    1b30:	f3 0f 1e fa          	endbr64
    1b34:	31 c0                	xor    eax,eax
    1b36:	c3                   	ret
    1b37:	66 0f 1f 84 00 00 00 	nop    WORD PTR [rax+rax*1+0x0]
    1b3e:	00 00 

0000000000001b40 <_Z13sumHashString8string_t>:
    1b40:	f3 0f 1e fa          	endbr64
    1b44:	31 c0                	xor    eax,eax
    1b46:	c3                   	ret
    1b47:	66 0f 1f 84 00 00 00 	nop    WORD PTR [rax+rax*1+0x0]
    1b4e:	00 00 

0000000000001b50 <_Z17adler32HashString8string_t>:
    1b50:	f3 0f 1e fa          	endbr64
    1b54:	8b 7c 24 2c          	mov    edi,DWORD PTR [rsp+0x2c]
    1b58:	85 ff                	test   edi,edi
    1b5a:	0f 84 f0 01 00 00    	je     1d50 <_Z17adler32HashString8string_t+0x200>
    1b60:	48 8b 44 24 08       	mov    rax,QWORD PTR [rsp+0x8]
    1b65:	41 b9 71 80 07 80    	mov    r9d,0x80078071
    1b6b:	49 b8 e7 e2 97 86 70 	movabs r8,0x800780708697e2e7
    1b72:	80 07 80 
    1b75:	48 8d 48 01          	lea    rcx,[rax+0x1]
    1b79:	48 89 c8             	mov    rax,rcx
    1b7c:	49 f7 e8             	imul   r8
    1b7f:	48 89 c8             	mov    rax,rcx
    1b82:	48 c1 f8 3f          	sar    rax,0x3f
    1b86:	48 01 ca             	add    rdx,rcx
    1b89:	48 c1 fa 0f          	sar    rdx,0xf
    1b8d:	48 29 c2             	sub    rdx,rax
    1b90:	48 69 c2 f1 ff 00 00 	imul   rax,rdx,0xfff1
    1b97:	48 29 c1             	sub    rcx,rax
    1b9a:	89 ce                	mov    esi,ecx
    1b9c:	48 89 ca             	mov    rdx,rcx
    1b9f:	41 89 ca             	mov    r10d,ecx
    1ba2:	48 89 f1             	mov    rcx,rsi
    1ba5:	49 0f af c9          	imul   rcx,r9
    1ba9:	48 c1 e9 2f          	shr    rcx,0x2f
    1bad:	69 c1 f1 ff 00 00    	imul   eax,ecx,0xfff1
    1bb3:	89 d1                	mov    ecx,edx
    1bb5:	29 c1                	sub    ecx,eax
    1bb7:	83 ff 01             	cmp    edi,0x1
    1bba:	0f 84 86 01 00 00    	je     1d46 <_Z17adler32HashString8string_t+0x1f6>
    1bc0:	48 03 74 24 10       	add    rsi,QWORD PTR [rsp+0x10]
    1bc5:	48 89 f0             	mov    rax,rsi
    1bc8:	49 f7 e8             	imul   r8
    1bcb:	48 89 f0             	mov    rax,rsi
    1bce:	48 c1 f8 3f          	sar    rax,0x3f
    1bd2:	48 01 f2             	add    rdx,rsi
    1bd5:	48 c1 fa 0f          	sar    rdx,0xf
    1bd9:	48 29 c2             	sub    rdx,rax
    1bdc:	48 69 c2 f1 ff 00 00 	imul   rax,rdx,0xfff1
    1be3:	48 29 c6             	sub    rsi,rax
    1be6:	01 f1                	add    ecx,esi
    1be8:	48 89 f2             	mov    rdx,rsi
    1beb:	41 89 f2             	mov    r10d,esi
    1bee:	89 c9                	mov    ecx,ecx
    1bf0:	48 89 c8             	mov    rax,rcx
    1bf3:	49 0f af c9          	imul   rcx,r9
    1bf7:	48 c1 e9 2f          	shr    rcx,0x2f
    1bfb:	69 f1 f1 ff 00 00    	imul   esi,ecx,0xfff1
    1c01:	29 f0                	sub    eax,esi
    1c03:	89 c1                	mov    ecx,eax
    1c05:	83 ff 02             	cmp    edi,0x2
    1c08:	0f 84 38 01 00 00    	je     1d46 <_Z17adler32HashString8string_t+0x1f6>
    1c0e:	89 d6                	mov    esi,edx
    1c10:	48 03 74 24 18       	add    rsi,QWORD PTR [rsp+0x18]
    1c15:	48 89 f0             	mov    rax,rsi
    1c18:	49 f7 e8             	imul   r8
    1c1b:	48 89 f0             	mov    rax,rsi
    1c1e:	48 c1 f8 3f          	sar    rax,0x3f
    1c22:	48 01 f2             	add    rdx,rsi
    1c25:	48 c1 fa 0f          	sar    rdx,0xf
    1c29:	48 29 c2             	sub    rdx,rax
    1c2c:	48 69 c2 f1 ff 00 00 	imul   rax,rdx,0xfff1
    1c33:	48 29 c6             	sub    rsi,rax
    1c36:	01 f1                	add    ecx,esi
    1c38:	48 89 f2             	mov    rdx,rsi
    1c3b:	41 89 f2             	mov    r10d,esi
    1c3e:	89 c9                	mov    ecx,ecx
    1c40:	48 89 c8             	mov    rax,rcx
    1c43:	49 0f af c9          	imul   rcx,r9
    1c47:	48 c1 e9 2f          	shr    rcx,0x2f
    1c4b:	69 f1 f1 ff 00 00    	imul   esi,ecx,0xfff1
    1c51:	29 f0                	sub    eax,esi
    1c53:	89 c1                	mov    ecx,eax
    1c55:	83 ff 03             	cmp    edi,0x3
    1c58:	0f 84 e8 00 00 00    	je     1d46 <_Z17adler32HashString8string_t+0x1f6>
    1c5e:	89 d6                	mov    esi,edx
    1c60:	48 03 74 24 20       	add    rsi,QWORD PTR [rsp+0x20]
    1c65:	48 89 f0             	mov    rax,rsi
    1c68:	49 f7 e8             	imul   r8
    1c6b:	48 89 f0             	mov    rax,rsi
    1c6e:	48 c1 f8 3f          	sar    rax,0x3f
    1c72:	48 01 f2             	add    rdx,rsi
    1c75:	48 c1 fa 0f          	sar    rdx,0xf
    1c79:	48 29 c2             	sub    rdx,rax
    1c7c:	48 69 c2 f1 ff 00 00 	imul   rax,rdx,0xfff1
    1c83:	48 29 c6             	sub    rsi,rax
    1c86:	01 f1                	add    ecx,esi
    1c88:	48 89 f2             	mov    rdx,rsi
    1c8b:	41 89 f2             	mov    r10d,esi
    1c8e:	89 c9                	mov    ecx,ecx
    1c90:	48 89 c8             	mov    rax,rcx
    1c93:	49 0f af c9          	imul   rcx,r9
    1c97:	48 c1 e9 2f          	shr    rcx,0x2f
    1c9b:	69 f1 f1 ff 00 00    	imul   esi,ecx,0xfff1
    1ca1:	29 f0                	sub    eax,esi
    1ca3:	89 c1                	mov    ecx,eax
    1ca5:	83 ff 04             	cmp    edi,0x4
    1ca8:	0f 84 98 00 00 00    	je     1d46 <_Z17adler32HashString8string_t+0x1f6>
    1cae:	89 d6                	mov    esi,edx
    1cb0:	48 03 74 24 28       	add    rsi,QWORD PTR [rsp+0x28]
    1cb5:	48 89 f0             	mov    rax,rsi
    1cb8:	49 f7 e8             	imul   r8
    1cbb:	48 8d 04 32          	lea    rax,[rdx+rsi*1]
    1cbf:	48 89 f2             	mov    rdx,rsi
    1cc2:	48 c1 f8 0f          	sar    rax,0xf
    1cc6:	48 c1 fa 3f          	sar    rdx,0x3f
    1cca:	48 29 d0             	sub    rax,rdx
    1ccd:	48 69 c0 f1 ff 00 00 	imul   rax,rax,0xfff1
    1cd4:	48 29 c6             	sub    rsi,rax
    1cd7:	01 f1                	add    ecx,esi
    1cd9:	41 89 f2             	mov    r10d,esi
    1cdc:	48 89 ce             	mov    rsi,rcx
    1cdf:	49 0f af c9          	imul   rcx,r9
    1ce3:	48 c1 e9 2f          	shr    rcx,0x2f
    1ce7:	69 c1 f1 ff 00 00    	imul   eax,ecx,0xfff1
    1ced:	29 c6                	sub    esi,eax
    1cef:	89 f1                	mov    ecx,esi
    1cf1:	83 ff 05             	cmp    edi,0x5
    1cf4:	74 50                	je     1d46 <_Z17adler32HashString8string_t+0x1f6>
    1cf6:	be 05 00 00 00       	mov    esi,0x5
    1cfb:	4c 03 54 f4 08       	add    r10,QWORD PTR [rsp+rsi*8+0x8]
    1d00:	48 83 c6 01          	add    rsi,0x1
    1d04:	4c 89 d0             	mov    rax,r10
    1d07:	49 f7 e8             	imul   r8
    1d0a:	4c 89 d0             	mov    rax,r10
    1d0d:	48 c1 f8 3f          	sar    rax,0x3f
    1d11:	4c 01 d2             	add    rdx,r10
    1d14:	48 c1 fa 0f          	sar    rdx,0xf
    1d18:	48 29 c2             	sub    rdx,rax
    1d1b:	48 69 c2 f1 ff 00 00 	imul   rax,rdx,0xfff1
    1d22:	4c 89 d2             	mov    rdx,r10
    1d25:	48 29 c2             	sub    rdx,rax
    1d28:	01 d1                	add    ecx,edx
    1d2a:	41 89 d2             	mov    r10d,edx
    1d2d:	48 89 ca             	mov    rdx,rcx
    1d30:	49 0f af c9          	imul   rcx,r9
    1d34:	48 c1 e9 2f          	shr    rcx,0x2f
    1d38:	69 c1 f1 ff 00 00    	imul   eax,ecx,0xfff1
    1d3e:	89 d1                	mov    ecx,edx
    1d40:	29 c1                	sub    ecx,eax
    1d42:	39 fe                	cmp    esi,edi
    1d44:	72 b5                	jb     1cfb <_Z17adler32HashString8string_t+0x1ab>
    1d46:	89 c8                	mov    eax,ecx
    1d48:	c1 e0 10             	shl    eax,0x10
    1d4b:	44 09 d0             	or     eax,r10d
    1d4e:	c3                   	ret
    1d4f:	90                   	nop
    1d50:	b8 01 00 00 00       	mov    eax,0x1
    1d55:	c3                   	ret
    1d56:	66 2e 0f 1f 84 00 00 	cs nop WORD PTR [rax+rax*1+0x0]
    1d5d:	00 00 00 

0000000000001d60 <_Z13elfHashString8string_t>:
    1d60:	f3 0f 1e fa          	endbr64
    1d64:	8b 4c 24 2c          	mov    ecx,DWORD PTR [rsp+0x2c]
    1d68:	85 c9                	test   ecx,ecx
    1d6a:	0f 84 ed 00 00 00    	je     1e5d <_Z13elfHashString8string_t+0xfd>
    1d70:	48 8b 44 24 08       	mov    rax,QWORD PTR [rsp+0x8]
    1d75:	89 c2                	mov    edx,eax
    1d77:	81 e2 00 00 00 f0    	and    edx,0xf0000000
    1d7d:	89 d6                	mov    esi,edx
    1d7f:	c1 ee 18             	shr    esi,0x18
    1d82:	31 c6                	xor    esi,eax
    1d84:	85 d2                	test   edx,edx
    1d86:	f7 d2                	not    edx
    1d88:	0f 45 c6             	cmovne eax,esi
    1d8b:	21 c2                	and    edx,eax
    1d8d:	83 f9 01             	cmp    ecx,0x1
    1d90:	0f 84 ca 00 00 00    	je     1e60 <_Z13elfHashString8string_t+0x100>
    1d96:	8b 44 24 10          	mov    eax,DWORD PTR [rsp+0x10]
    1d9a:	c1 e2 04             	shl    edx,0x4
    1d9d:	01 d0                	add    eax,edx
    1d9f:	89 c2                	mov    edx,eax
    1da1:	81 e2 00 00 00 f0    	and    edx,0xf0000000
    1da7:	89 d6                	mov    esi,edx
    1da9:	c1 ee 18             	shr    esi,0x18
    1dac:	31 c6                	xor    esi,eax
    1dae:	85 d2                	test   edx,edx
    1db0:	f7 d2                	not    edx
    1db2:	0f 45 c6             	cmovne eax,esi
    1db5:	21 c2                	and    edx,eax
    1db7:	83 f9 02             	cmp    ecx,0x2
    1dba:	0f 84 a0 00 00 00    	je     1e60 <_Z13elfHashString8string_t+0x100>
    1dc0:	8b 44 24 18          	mov    eax,DWORD PTR [rsp+0x18]
    1dc4:	c1 e2 04             	shl    edx,0x4
    1dc7:	01 d0                	add    eax,edx
    1dc9:	89 c2                	mov    edx,eax
    1dcb:	81 e2 00 00 00 f0    	and    edx,0xf0000000
    1dd1:	89 d6                	mov    esi,edx
    1dd3:	c1 ee 18             	shr    esi,0x18
    1dd6:	31 c6                	xor    esi,eax
    1dd8:	85 d2                	test   edx,edx
    1dda:	f7 d2                	not    edx
    1ddc:	0f 45 c6             	cmovne eax,esi
    1ddf:	21 c2                	and    edx,eax
    1de1:	83 f9 03             	cmp    ecx,0x3
    1de4:	74 7a                	je     1e60 <_Z13elfHashString8string_t+0x100>
    1de6:	8b 44 24 20          	mov    eax,DWORD PTR [rsp+0x20]
    1dea:	c1 e2 04             	shl    edx,0x4
    1ded:	01 d0                	add    eax,edx
    1def:	89 c2                	mov    edx,eax
    1df1:	81 e2 00 00 00 f0    	and    edx,0xf0000000
    1df7:	89 d6                	mov    esi,edx
    1df9:	c1 ee 18             	shr    esi,0x18
    1dfc:	31 c6                	xor    esi,eax
    1dfe:	85 d2                	test   edx,edx
    1e00:	f7 d2                	not    edx
    1e02:	0f 45 c6             	cmovne eax,esi
    1e05:	21 c2                	and    edx,eax
    1e07:	83 f9 04             	cmp    ecx,0x4
    1e0a:	74 54                	je     1e60 <_Z13elfHashString8string_t+0x100>
    1e0c:	8b 44 24 28          	mov    eax,DWORD PTR [rsp+0x28]
    1e10:	c1 e2 04             	shl    edx,0x4
    1e13:	01 d0                	add    eax,edx
    1e15:	89 c2                	mov    edx,eax
    1e17:	81 e2 00 00 00 f0    	and    edx,0xf0000000
    1e1d:	89 d6                	mov    esi,edx
    1e1f:	c1 ee 18             	shr    esi,0x18
    1e22:	31 c6                	xor    esi,eax
    1e24:	85 d2                	test   edx,edx
    1e26:	f7 d2                	not    edx
    1e28:	0f 45 c6             	cmovne eax,esi
    1e2b:	21 d0                	and    eax,edx
    1e2d:	ba 05 00 00 00       	mov    edx,0x5
    1e32:	83 f9 05             	cmp    ecx,0x5
    1e35:	74 24                	je     1e5b <_Z13elfHashString8string_t+0xfb>
    1e37:	c1 e0 04             	shl    eax,0x4
    1e3a:	03 44 d4 08          	add    eax,DWORD PTR [rsp+rdx*8+0x8]
    1e3e:	89 c6                	mov    esi,eax
    1e40:	81 e6 00 00 00 f0    	and    esi,0xf0000000
    1e46:	74 0b                	je     1e53 <_Z13elfHashString8string_t+0xf3>
    1e48:	89 f7                	mov    edi,esi
    1e4a:	f7 d6                	not    esi
    1e4c:	c1 ef 18             	shr    edi,0x18
    1e4f:	31 f8                	xor    eax,edi
    1e51:	21 f0                	and    eax,esi
    1e53:	48 83 c2 01          	add    rdx,0x1
    1e57:	39 ca                	cmp    edx,ecx
    1e59:	72 dc                	jb     1e37 <_Z13elfHashString8string_t+0xd7>
    1e5b:	89 c1                	mov    ecx,eax
    1e5d:	89 c8                	mov    eax,ecx
    1e5f:	c3                   	ret
    1e60:	89 d1                	mov    ecx,edx
    1e62:	89 c8                	mov    eax,ecx
    1e64:	c3                   	ret
    1e65:	66 2e 0f 1f 84 00 00 	cs nop WORD PTR [rax+rax*1+0x0]
    1e6c:	00 00 00 
    1e6f:	90                   	nop

0000000000001e70 <_Z13searchElementP4List8string_t.part.0>:
    1e70:	50                   	push   rax
    1e71:	58                   	pop    rax
    1e72:	48 8d 0d c7 24 00 00 	lea    rcx,[rip+0x24c7]        # 4340 <_IO_stdin_used+0x340>
    1e79:	ba 58 00 00 00       	mov    edx,0x58
    1e7e:	48 8d 35 de 21 00 00 	lea    rsi,[rip+0x21de]        # 4063 <_IO_stdin_used+0x63>
    1e85:	48 8d 3d f2 21 00 00 	lea    rdi,[rip+0x21f2]        # 407e <_IO_stdin_used+0x7e>
    1e8c:	48 83 ec 08          	sub    rsp,0x8
    1e90:	e8 db f1 ff ff       	call   1070 <__assert_fail@plt>
    1e95:	66 66 2e 0f 1f 84 00 	data16 cs nop WORD PTR [rax+rax*1+0x0]
    1e9c:	00 00 00 00 

0000000000001ea0 <_Z8listCtorv>:
    1ea0:	f3 0f 1e fa          	endbr64
    1ea4:	53                   	push   rbx
    1ea5:	be 00 02 00 00       	mov    esi,0x200
    1eaa:	48 89 fb             	mov    rbx,rdi
    1ead:	bf 80 00 00 00       	mov    edi,0x80
    1eb2:	e8 e9 f1 ff ff       	call   10a0 <aligned_alloc@plt>
    1eb7:	b9 40 00 00 00       	mov    ecx,0x40
    1ebc:	48 c7 43 10 00 00 00 	mov    QWORD PTR [rbx+0x10],0x0
    1ec3:	00 
    1ec4:	48 89 c2             	mov    rdx,rax
    1ec7:	48 89 03             	mov    QWORD PTR [rbx],rax
    1eca:	31 c0                	xor    eax,eax
    1ecc:	48 89 d7             	mov    rdi,rdx
    1ecf:	f3 48 ab             	rep stos QWORD PTR es:[rdi],rax
    1ed2:	48 b8 01 00 00 00 04 	movabs rax,0x400000001
    1ed9:	00 00 00 
    1edc:	48 89 43 08          	mov    QWORD PTR [rbx+0x8],rax
    1ee0:	48 8b 05 81 27 00 00 	mov    rax,QWORD PTR [rip+0x2781]        # 4668 <_IO_stdin_used+0x668>
    1ee7:	48 89 82 80 00 00 00 	mov    QWORD PTR [rdx+0x80],rax
    1eee:	48 8b 05 7b 27 00 00 	mov    rax,QWORD PTR [rip+0x277b]        # 4670 <_IO_stdin_used+0x670>
    1ef5:	48 89 82 00 01 00 00 	mov    QWORD PTR [rdx+0x100],rax
    1efc:	48 8b 05 75 27 00 00 	mov    rax,QWORD PTR [rip+0x2775]        # 4678 <_IO_stdin_used+0x678>
    1f03:	48 89 82 80 01 00 00 	mov    QWORD PTR [rdx+0x180],rax
    1f0a:	48 89 d8             	mov    rax,rbx
    1f0d:	5b                   	pop    rbx
    1f0e:	c3                   	ret
    1f0f:	90                   	nop

0000000000001f10 <_Z12pushListElemP4List8string_t>:
    1f10:	f3 0f 1e fa          	endbr64
    1f14:	41 57                	push   r15
    1f16:	41 56                	push   r14
    1f18:	41 55                	push   r13
    1f1a:	41 54                	push   r12
    1f1c:	55                   	push   rbp
    1f1d:	53                   	push   rbx
    1f1e:	48 83 ec 08          	sub    rsp,0x8
    1f22:	48 85 ff             	test   rdi,rdi
    1f25:	0f 84 62 01 00 00    	je     208d <_Z12pushListElemP4List8string_t+0x17d>
    1f2b:	48 8b 2f             	mov    rbp,QWORD PTR [rdi]
    1f2e:	c5 fd 6f 5c 24 40    	vmovdqa ymm3,YMMWORD PTR [rsp+0x40]
    1f34:	49 89 fc             	mov    r12,rdi
    1f37:	8b 45 00             	mov    eax,DWORD PTR [rbp+0x0]
    1f3a:	85 c0                	test   eax,eax
    1f3c:	75 08                	jne    1f46 <_Z12pushListElemP4List8string_t+0x36>
    1f3e:	eb 58                	jmp    1f98 <_Z12pushListElemP4List8string_t+0x88>
    1f40:	8b 00                	mov    eax,DWORD PTR [rax]
    1f42:	85 c0                	test   eax,eax
    1f44:	74 52                	je     1f98 <_Z12pushListElemP4List8string_t+0x88>
    1f46:	89 c3                	mov    ebx,eax
    1f48:	48 c1 e3 07          	shl    rbx,0x7
    1f4c:	48 8d 44 1d 00       	lea    rax,[rbp+rbx*1+0x0]
    1f51:	c5 fd 6f 60 40       	vmovdqa ymm4,YMMWORD PTR [rax+0x40]
    1f56:	c5 fd 6f c3          	vmovdqa ymm0,ymm3
    1f5a:	c5 fd 6f cc          	vmovdqa ymm1,ymm4
    1f5e:	c5 fd 74 d1          	vpcmpeqb ymm2,ymm0,ymm1
    1f62:	c5 fd d7 d2          	vpmovmskb edx,ymm2
    1f66:	f7 d2                	not    edx
    1f68:	85 d2                	test   edx,edx
    1f6a:	75 d4                	jne    1f40 <_Z12pushListElemP4List8string_t+0x30>
    1f6c:	8b 70 08             	mov    esi,DWORD PTR [rax+0x8]
    1f6f:	8d 4e 01             	lea    ecx,[rsi+0x1]
    1f72:	89 48 08             	mov    DWORD PTR [rax+0x8],ecx
    1f75:	45 8b 6c 24 0c       	mov    r13d,DWORD PTR [r12+0xc]
    1f7a:	45 39 6c 24 08       	cmp    DWORD PTR [r12+0x8],r13d
    1f7f:	74 7f                	je     2000 <_Z12pushListElemP4List8string_t+0xf0>
    1f81:	c5 f8 77             	vzeroupper
    1f84:	48 83 c4 08          	add    rsp,0x8
    1f88:	89 c8                	mov    eax,ecx
    1f8a:	5b                   	pop    rbx
    1f8b:	5d                   	pop    rbp
    1f8c:	41 5c                	pop    r12
    1f8e:	41 5d                	pop    r13
    1f90:	41 5e                	pop    r14
    1f92:	41 5f                	pop    r15
    1f94:	c3                   	ret
    1f95:	0f 1f 00             	nop    DWORD PTR [rax]
    1f98:	41 8b 5c 24 08       	mov    ebx,DWORD PTR [r12+0x8]
    1f9d:	c5 fd 6f 44 24 40    	vmovdqa ymm0,YMMWORD PTR [rsp+0x40]
    1fa3:	c5 fd 6f 4c 24 60    	vmovdqa ymm1,YMMWORD PTR [rsp+0x60]
    1fa9:	48 89 d9             	mov    rcx,rbx
    1fac:	48 c1 e3 07          	shl    rbx,0x7
    1fb0:	48 01 dd             	add    rbp,rbx
    1fb3:	8b 45 00             	mov    eax,DWORD PTR [rbp+0x0]
    1fb6:	41 89 44 24 08       	mov    DWORD PTR [r12+0x8],eax
    1fbb:	c5 fd 7f 45 40       	vmovdqa YMMWORD PTR [rbp+0x40],ymm0
    1fc0:	c5 fd 7f 4d 60       	vmovdqa YMMWORD PTR [rbp+0x60],ymm1
    1fc5:	49 8b 2c 24          	mov    rbp,QWORD PTR [r12]
    1fc9:	48 8d 44 1d 00       	lea    rax,[rbp+rbx*1+0x0]
    1fce:	c7 40 08 00 00 00 00 	mov    DWORD PTR [rax+0x8],0x0
    1fd5:	8b 55 04             	mov    edx,DWORD PTR [rbp+0x4]
    1fd8:	c7 00 00 00 00 00    	mov    DWORD PTR [rax],0x0
    1fde:	89 50 04             	mov    DWORD PTR [rax+0x4],edx
    1fe1:	48 c1 e2 07          	shl    rdx,0x7
    1fe5:	89 4d 04             	mov    DWORD PTR [rbp+0x4],ecx
    1fe8:	89 4c 15 00          	mov    DWORD PTR [rbp+rdx*1+0x0],ecx
    1fec:	41 83 44 24 10 01    	add    DWORD PTR [r12+0x10],0x1
    1ff2:	e9 75 ff ff ff       	jmp    1f6c <_Z12pushListElemP4List8string_t+0x5c>
    1ff7:	66 0f 1f 84 00 00 00 	nop    WORD PTR [rax+rax*1+0x0]
    1ffe:	00 00 
    2000:	47 8d 7c 2d 00       	lea    r15d,[r13+r13*1+0x0]
    2005:	bf 80 00 00 00       	mov    edi,0x80
    200a:	45 89 7c 24 0c       	mov    DWORD PTR [r12+0xc],r15d
    200f:	49 c1 e7 07          	shl    r15,0x7
    2013:	4c 89 fe             	mov    rsi,r15
    2016:	c5 f8 77             	vzeroupper
    2019:	e8 82 f0 ff ff       	call   10a0 <aligned_alloc@plt>
    201e:	4c 89 f9             	mov    rcx,r15
    2021:	4c 89 fa             	mov    rdx,r15
    2024:	31 f6                	xor    esi,esi
    2026:	48 89 c7             	mov    rdi,rax
    2029:	49 89 c6             	mov    r14,rax
    202c:	e8 ef f0 ff ff       	call   1120 <__memset_chk@plt>
    2031:	44 89 ea             	mov    edx,r13d
    2034:	48 89 ee             	mov    rsi,rbp
    2037:	4c 89 f9             	mov    rcx,r15
    203a:	81 e2 ff ff ff 7f    	and    edx,0x7fffffff
    2040:	4c 89 f7             	mov    rdi,r14
    2043:	48 c1 e2 07          	shl    rdx,0x7
    2047:	e8 24 f1 ff ff       	call   1170 <__memcpy_chk@plt>
    204c:	48 89 ef             	mov    rdi,rbp
    204f:	e8 ac f0 ff ff       	call   1100 <free@plt>
    2054:	41 8b 54 24 08       	mov    edx,DWORD PTR [r12+0x8]
    2059:	41 8b 74 24 0c       	mov    esi,DWORD PTR [r12+0xc]
    205e:	4d 89 34 24          	mov    QWORD PTR [r12],r14
    2062:	48 89 d0             	mov    rax,rdx
    2065:	48 c1 e2 07          	shl    rdx,0x7
    2069:	4c 01 f2             	add    rdx,r14
    206c:	39 f0                	cmp    eax,esi
    206e:	73 13                	jae    2083 <_Z12pushListElemP4List8string_t+0x173>
    2070:	89 c1                	mov    ecx,eax
    2072:	83 c0 01             	add    eax,0x1
    2075:	48 83 ea 80          	sub    rdx,0xffffffffffffff80
    2079:	89 42 80             	mov    DWORD PTR [rdx-0x80],eax
    207c:	89 4a 84             	mov    DWORD PTR [rdx-0x7c],ecx
    207f:	39 c6                	cmp    esi,eax
    2081:	75 ed                	jne    2070 <_Z12pushListElemP4List8string_t+0x160>
    2083:	41 8b 4c 1e 08       	mov    ecx,DWORD PTR [r14+rbx*1+0x8]
    2088:	e9 f7 fe ff ff       	jmp    1f84 <_Z12pushListElemP4List8string_t+0x74>
    208d:	48 8d 0d d4 22 00 00 	lea    rcx,[rip+0x22d4]        # 4368 <_IO_stdin_used+0x368>
    2094:	ba 1f 00 00 00       	mov    edx,0x1f
    2099:	48 8d 35 c3 1f 00 00 	lea    rsi,[rip+0x1fc3]        # 4063 <_IO_stdin_used+0x63>
    20a0:	48 8d 3d d7 1f 00 00 	lea    rdi,[rip+0x1fd7]        # 407e <_IO_stdin_used+0x7e>
    20a7:	e8 c4 ef ff ff       	call   1070 <__assert_fail@plt>
    20ac:	0f 1f 40 00          	nop    DWORD PTR [rax+0x0]

00000000000020b0 <_Z11popListElemP4List8string_t>:
    20b0:	f3 0f 1e fa          	endbr64
    20b4:	48 83 ec 18          	sub    rsp,0x18
    20b8:	48 85 ff             	test   rdi,rdi
    20bb:	0f 84 84 00 00 00    	je     2145 <_Z11popListElemP4List8string_t+0x95>
    20c1:	4c 8b 07             	mov    r8,QWORD PTR [rdi]
    20c4:	c5 fd 6f 5c 24 20    	vmovdqa ymm3,YMMWORD PTR [rsp+0x20]
    20ca:	41 8b 08             	mov    ecx,DWORD PTR [r8]
    20cd:	eb 29                	jmp    20f8 <_Z11popListElemP4List8string_t+0x48>
    20cf:	90                   	nop
    20d0:	89 ca                	mov    edx,ecx
    20d2:	48 c1 e2 07          	shl    rdx,0x7
    20d6:	4c 01 c2             	add    rdx,r8
    20d9:	c5 fd 6f 62 40       	vmovdqa ymm4,YMMWORD PTR [rdx+0x40]
    20de:	c5 fd 6f c3          	vmovdqa ymm0,ymm3
    20e2:	c5 fd 6f cc          	vmovdqa ymm1,ymm4
    20e6:	c5 fd 74 d1          	vpcmpeqb ymm2,ymm0,ymm1
    20ea:	c5 fd d7 f2          	vpmovmskb esi,ymm2
    20ee:	f7 d6                	not    esi
    20f0:	89 c8                	mov    eax,ecx
    20f2:	8b 0a                	mov    ecx,DWORD PTR [rdx]
    20f4:	85 f6                	test   esi,esi
    20f6:	74 18                	je     2110 <_Z11popListElemP4List8string_t+0x60>
    20f8:	85 c9                	test   ecx,ecx
    20fa:	75 d4                	jne    20d0 <_Z11popListElemP4List8string_t+0x20>
    20fc:	31 c0                	xor    eax,eax
    20fe:	c5 f8 77             	vzeroupper
    2101:	48 83 c4 18          	add    rsp,0x18
    2105:	c3                   	ret
    2106:	66 2e 0f 1f 84 00 00 	cs nop WORD PTR [rax+rax*1+0x0]
    210d:	00 00 00 
    2110:	8b 72 04             	mov    esi,DWORD PTR [rdx+0x4]
    2113:	c7 42 60 00 00 00 00 	mov    DWORD PTR [rdx+0x60],0x0
    211a:	49 89 f1             	mov    r9,rsi
    211d:	48 c1 e6 07          	shl    rsi,0x7
    2121:	41 89 0c 30          	mov    DWORD PTR [r8+rsi*1],ecx
    2125:	48 c1 e1 07          	shl    rcx,0x7
    2129:	45 89 4c 08 04       	mov    DWORD PTR [r8+rcx*1+0x4],r9d
    212e:	89 42 04             	mov    DWORD PTR [rdx+0x4],eax
    2131:	8b 4f 08             	mov    ecx,DWORD PTR [rdi+0x8]
    2134:	89 0a                	mov    DWORD PTR [rdx],ecx
    2136:	83 6f 10 01          	sub    DWORD PTR [rdi+0x10],0x1
    213a:	89 47 08             	mov    DWORD PTR [rdi+0x8],eax
    213d:	c5 f8 77             	vzeroupper
    2140:	48 83 c4 18          	add    rsp,0x18
    2144:	c3                   	ret
    2145:	48 8d 0d 3c 22 00 00 	lea    rcx,[rip+0x223c]        # 4388 <_IO_stdin_used+0x388>
    214c:	ba 3c 00 00 00       	mov    edx,0x3c
    2151:	48 8d 35 0b 1f 00 00 	lea    rsi,[rip+0x1f0b]        # 4063 <_IO_stdin_used+0x63>
    2158:	48 8d 3d 1f 1f 00 00 	lea    rdi,[rip+0x1f1f]        # 407e <_IO_stdin_used+0x7e>
    215f:	e8 0c ef ff ff       	call   1070 <__assert_fail@plt>
    2164:	66 66 2e 0f 1f 84 00 	data16 cs nop WORD PTR [rax+rax*1+0x0]
    216b:	00 00 00 00 
    216f:	90                   	nop

0000000000002170 <_Z13searchElementP4List8string_t>:
    2170:	f3 0f 1e fa          	endbr64
    2174:	48 83 ec 18          	sub    rsp,0x18
    2178:	48 85 ff             	test   rdi,rdi
    217b:	74 49                	je     21c6 <_Z13searchElementP4List8string_t+0x56>
    217d:	48 8b 37             	mov    rsi,QWORD PTR [rdi]
    2180:	8b 06                	mov    eax,DWORD PTR [rsi]
    2182:	85 c0                	test   eax,eax
    2184:	74 3c                	je     21c2 <_Z13searchElementP4List8string_t+0x52>
    2186:	c5 fd 6f 5c 24 20    	vmovdqa ymm3,YMMWORD PTR [rsp+0x20]
    218c:	eb 08                	jmp    2196 <_Z13searchElementP4List8string_t+0x26>
    218e:	66 90                	xchg   ax,ax
    2190:	8b 02                	mov    eax,DWORD PTR [rdx]
    2192:	85 c0                	test   eax,eax
    2194:	74 24                	je     21ba <_Z13searchElementP4List8string_t+0x4a>
    2196:	89 c2                	mov    edx,eax
    2198:	48 c1 e2 07          	shl    rdx,0x7
    219c:	48 01 f2             	add    rdx,rsi
    219f:	c5 fd 6f 62 40       	vmovdqa ymm4,YMMWORD PTR [rdx+0x40]
    21a4:	c5 fd 6f c3          	vmovdqa ymm0,ymm3
    21a8:	c5 fd 6f cc          	vmovdqa ymm1,ymm4
    21ac:	c5 fd 74 d1          	vpcmpeqb ymm2,ymm0,ymm1
    21b0:	c5 fd d7 ca          	vpmovmskb ecx,ymm2
    21b4:	f7 d1                	not    ecx
    21b6:	85 c9                	test   ecx,ecx
    21b8:	75 d6                	jne    2190 <_Z13searchElementP4List8string_t+0x20>
    21ba:	c5 f8 77             	vzeroupper
    21bd:	48 83 c4 18          	add    rsp,0x18
    21c1:	c3                   	ret
    21c2:	31 c0                	xor    eax,eax
    21c4:	eb f7                	jmp    21bd <_Z13searchElementP4List8string_t+0x4d>
    21c6:	e8 a5 fc ff ff       	call   1e70 <_Z13searchElementP4List8string_t.part.0>
    21cb:	0f 1f 44 00 00       	nop    DWORD PTR [rax+rax*1+0x0]

00000000000021d0 <_Z8listDtorP4List>:
    21d0:	f3 0f 1e fa          	endbr64
    21d4:	53                   	push   rbx
    21d5:	48 85 ff             	test   rdi,rdi
    21d8:	74 15                	je     21ef <_Z8listDtorP4List+0x1f>
    21da:	48 89 fb             	mov    rbx,rdi
    21dd:	48 8b 3f             	mov    rdi,QWORD PTR [rdi]
    21e0:	e8 1b ef ff ff       	call   1100 <free@plt>
    21e5:	48 c7 43 08 00 00 00 	mov    QWORD PTR [rbx+0x8],0x0
    21ec:	00 
    21ed:	5b                   	pop    rbx
    21ee:	c3                   	ret
    21ef:	48 8d 0d 8d 1e 00 00 	lea    rcx,[rip+0x1e8d]        # 4083 <_IO_stdin_used+0x83>
    21f6:	ba bb 00 00 00       	mov    edx,0xbb
    21fb:	48 8d 35 61 1e 00 00 	lea    rsi,[rip+0x1e61]        # 4063 <_IO_stdin_used+0x63>
    2202:	48 8d 3d 75 1e 00 00 	lea    rdi,[rip+0x1e75]        # 407e <_IO_stdin_used+0x7e>
    2209:	e8 62 ee ff ff       	call   1070 <__assert_fail@plt>
    220e:	66 90                	xchg   ax,ax

0000000000002210 <_Z8readFilePKcPm>:
    2210:	f3 0f 1e fa          	endbr64
    2214:	55                   	push   rbp
    2215:	48 89 e5             	mov    rbp,rsp
    2218:	41 55                	push   r13
    221a:	41 54                	push   r12
    221c:	53                   	push   rbx
    221d:	48 81 ec a8 00 00 00 	sub    rsp,0xa8
    2224:	64 48 8b 04 25 28 00 	mov    rax,QWORD PTR fs:0x28
    222b:	00 00 
    222d:	48 89 84 24 98 00 00 	mov    QWORD PTR [rsp+0x98],rax
    2234:	00 
    2235:	31 c0                	xor    eax,eax
    2237:	48 85 ff             	test   rdi,rdi
    223a:	0f 84 b4 00 00 00    	je     22f4 <_Z8readFilePKcPm+0xe4>
    2240:	c5 f9 ef c0          	vpxor  xmm0,xmm0,xmm0
    2244:	49 89 f4             	mov    r12,rsi
    2247:	48 89 e6             	mov    rsi,rsp
    224a:	48 89 fb             	mov    rbx,rdi
    224d:	c5 fe 7f 04 24       	vmovdqu YMMWORD PTR [rsp],ymm0
    2252:	c5 fe 7f 44 24 20    	vmovdqu YMMWORD PTR [rsp+0x20],ymm0
    2258:	c5 fe 7f 44 24 40    	vmovdqu YMMWORD PTR [rsp+0x40],ymm0
    225e:	c5 fe 7f 44 24 60    	vmovdqu YMMWORD PTR [rsp+0x60],ymm0
    2264:	c5 f9 7f 84 24 80 00 	vmovdqa XMMWORD PTR [rsp+0x80],xmm0
    226b:	00 00 
    226d:	c5 f8 77             	vzeroupper
    2270:	e8 3b ee ff ff       	call   10b0 <stat@plt>
    2275:	83 f8 ff             	cmp    eax,0xffffffff
    2278:	74 76                	je     22f0 <_Z8readFilePKcPm+0xe0>
    227a:	4c 8b 6c 24 30       	mov    r13,QWORD PTR [rsp+0x30]
    227f:	31 f6                	xor    esi,esi
    2281:	48 89 df             	mov    rdi,rbx
    2284:	31 c0                	xor    eax,eax
    2286:	4d 89 2c 24          	mov    QWORD PTR [r12],r13
    228a:	e8 01 ee ff ff       	call   1090 <open@plt>
    228f:	41 89 c4             	mov    r12d,eax
    2292:	83 f8 ff             	cmp    eax,0xffffffff
    2295:	74 59                	je     22f0 <_Z8readFilePKcPm+0xe0>
    2297:	be 01 00 00 00       	mov    esi,0x1
    229c:	4c 89 ef             	mov    rdi,r13
    229f:	e8 dc ed ff ff       	call   1080 <calloc@plt>
    22a4:	48 89 c3             	mov    rbx,rax
    22a7:	48 85 c0             	test   rax,rax
    22aa:	74 16                	je     22c2 <_Z8readFilePKcPm+0xb2>
    22ac:	44 89 e7             	mov    edi,r12d
    22af:	4c 89 ea             	mov    rdx,r13
    22b2:	48 89 c6             	mov    rsi,rax
    22b5:	e8 86 ee ff ff       	call   1140 <read@plt>
    22ba:	44 89 e7             	mov    edi,r12d
    22bd:	e8 de ee ff ff       	call   11a0 <close@plt>
    22c2:	48 8b 84 24 98 00 00 	mov    rax,QWORD PTR [rsp+0x98]
    22c9:	00 
    22ca:	64 48 2b 04 25 28 00 	sub    rax,QWORD PTR fs:0x28
    22d1:	00 00 
    22d3:	75 3e                	jne    2313 <_Z8readFilePKcPm+0x103>
    22d5:	48 81 c4 a8 00 00 00 	add    rsp,0xa8
    22dc:	48 89 d8             	mov    rax,rbx
    22df:	5b                   	pop    rbx
    22e0:	41 5c                	pop    r12
    22e2:	41 5d                	pop    r13
    22e4:	5d                   	pop    rbp
    22e5:	c3                   	ret
    22e6:	66 2e 0f 1f 84 00 00 	cs nop WORD PTR [rax+rax*1+0x0]
    22ed:	00 00 00 
    22f0:	31 db                	xor    ebx,ebx
    22f2:	eb ce                	jmp    22c2 <_Z8readFilePKcPm+0xb2>
    22f4:	48 8d 0d ad 20 00 00 	lea    rcx,[rip+0x20ad]        # 43a8 <_IO_stdin_used+0x3a8>
    22fb:	ba 0c 00 00 00       	mov    edx,0xc
    2300:	48 8d 35 91 1d 00 00 	lea    rsi,[rip+0x1d91]        # 4098 <_IO_stdin_used+0x98>
    2307:	48 8d 3d a6 1d 00 00 	lea    rdi,[rip+0x1da6]        # 40b4 <_IO_stdin_used+0xb4>
    230e:	e8 5d ed ff ff       	call   1070 <__assert_fail@plt>
    2313:	e8 c8 ed ff ff       	call   10e0 <__stack_chk_fail@plt>
    2318:	0f 1f 84 00 00 00 00 	nop    DWORD PTR [rax+rax*1+0x0]
    231f:	00 

0000000000002320 <_Z10countLinesPcm>:
    2320:	f3 0f 1e fa          	endbr64
    2324:	41 54                	push   r12
    2326:	55                   	push   rbp
    2327:	53                   	push   rbx
    2328:	48 85 ff             	test   rdi,rdi
    232b:	74 36                	je     2363 <_Z10countLinesPcm+0x43>
    232d:	48 89 fd             	mov    rbp,rdi
    2330:	49 89 f4             	mov    r12,rsi
    2333:	31 db                	xor    ebx,ebx
    2335:	48 85 f6             	test   rsi,rsi
    2338:	74 22                	je     235c <_Z10countLinesPcm+0x3c>
    233a:	66 0f 1f 44 00 00    	nop    WORD PTR [rax+rax*1+0x0]
    2340:	be 0a 00 00 00       	mov    esi,0xa
    2345:	83 c3 01             	add    ebx,0x1
    2348:	e8 03 ed ff ff       	call   1050 <strchr@plt>
    234d:	48 8d 78 01          	lea    rdi,[rax+0x1]
    2351:	48 89 f8             	mov    rax,rdi
    2354:	48 29 e8             	sub    rax,rbp
    2357:	4c 39 e0             	cmp    rax,r12
    235a:	75 e4                	jne    2340 <_Z10countLinesPcm+0x20>
    235c:	89 d8                	mov    eax,ebx
    235e:	5b                   	pop    rbx
    235f:	5d                   	pop    rbp
    2360:	41 5c                	pop    r12
    2362:	c3                   	ret
    2363:	48 8d 0d 66 20 00 00 	lea    rcx,[rip+0x2066]        # 43d0 <_IO_stdin_used+0x3d0>
    236a:	ba 22 00 00 00       	mov    edx,0x22
    236f:	48 8d 35 22 1d 00 00 	lea    rsi,[rip+0x1d22]        # 4098 <_IO_stdin_used+0x98>
    2376:	48 8d 3d a0 1c 00 00 	lea    rdi,[rip+0x1ca0]        # 401d <_IO_stdin_used+0x1d>
    237d:	e8 ee ec ff ff       	call   1070 <__assert_fail@plt>
    2382:	66 2e 0f 1f 84 00 00 	cs nop WORD PTR [rax+rax*1+0x0]
    2389:	00 00 00 
    238c:	0f 1f 40 00          	nop    DWORD PTR [rax+0x0]

0000000000002390 <_Z14testCollisionsP8_IO_FILEPFj8string_tE8TestDataj>:
    2390:	f3 0f 1e fa          	endbr64
    2394:	4c 8d 54 24 08       	lea    r10,[rsp+0x8]
    2399:	48 83 e4 e0          	and    rsp,0xffffffffffffffe0
    239d:	41 ff 72 f8          	push   QWORD PTR [r10-0x8]
    23a1:	55                   	push   rbp
    23a2:	48 89 e5             	mov    rbp,rsp
    23a5:	41 57                	push   r15
    23a7:	41 56                	push   r14
    23a9:	41 55                	push   r13
    23ab:	41 54                	push   r12
    23ad:	41 52                	push   r10
    23af:	53                   	push   rbx
    23b0:	48 83 ec 40          	sub    rsp,0x40
    23b4:	64 48 8b 04 25 28 00 	mov    rax,QWORD PTR fs:0x28
    23bb:	00 00 
    23bd:	48 89 45 c8          	mov    QWORD PTR [rbp-0x38],rax
    23c1:	31 c0                	xor    eax,eax
    23c3:	48 85 ff             	test   rdi,rdi
    23c6:	0f 84 03 04 00 00    	je     27cf <_Z14testCollisionsP8_IO_FILEPFj8string_tE8TestDataj+0x43f>
    23cc:	4c 8d 65 b0          	lea    r12,[rbp-0x50]
    23d0:	49 89 fd             	mov    r13,rdi
    23d3:	48 89 d3             	mov    rbx,rdx
    23d6:	49 89 ce             	mov    r14,rcx
    23d9:	44 89 c2             	mov    edx,r8d
    23dc:	4c 89 e7             	mov    rdi,r12
    23df:	e8 ac f0 ff ff       	call   1490 <_Z11hashMapCtorPFj8string_tEj>
    23e4:	45 85 f6             	test   r14d,r14d
    23e7:	74 3f                	je     2428 <_Z14testCollisionsP8_IO_FILEPFj8string_tE8TestDataj+0x98>
    23e9:	45 89 f6             	mov    r14d,r14d
    23ec:	49 c1 e6 06          	shl    r14,0x6
    23f0:	49 01 de             	add    r14,rbx
    23f3:	0f 1f 44 00 00       	nop    DWORD PTR [rax+rax*1+0x0]
    23f8:	c5 fd 6f 23          	vmovdqa ymm4,YMMWORD PTR [rbx]
    23fc:	48 83 ec 40          	sub    rsp,0x40
    2400:	4c 89 e7             	mov    rdi,r12
    2403:	c5 fd 7f 24 24       	vmovdqa YMMWORD PTR [rsp],ymm4
    2408:	c5 fd 6f 6b 20       	vmovdqa ymm5,YMMWORD PTR [rbx+0x20]
    240d:	c5 fd 7f 6c 24 20    	vmovdqa YMMWORD PTR [rsp+0x20],ymm5
    2413:	c5 f8 77             	vzeroupper
    2416:	e8 25 f1 ff ff       	call   1540 <_Z17hashMapAddElementP7HashMap8string_t>
    241b:	48 83 c3 40          	add    rbx,0x40
    241f:	48 83 c4 40          	add    rsp,0x40
    2423:	49 39 de             	cmp    r14,rbx
    2426:	75 d0                	jne    23f8 <_Z14testCollisionsP8_IO_FILEPFj8string_tE8TestDataj+0x68>
    2428:	4c 89 e9             	mov    rcx,r13
    242b:	ba 19 00 00 00       	mov    edx,0x19
    2430:	be 01 00 00 00       	mov    esi,0x1
    2435:	48 8d 3d a2 1c 00 00 	lea    rdi,[rip+0x1ca2]        # 40de <_IO_stdin_used+0xde>
    243c:	e8 4f ed ff ff       	call   1190 <fwrite@plt>
    2441:	8b 45 b8             	mov    eax,DWORD PTR [rbp-0x48]
    2444:	c5 f8 57 c0          	vxorps xmm0,xmm0,xmm0
    2448:	c5 f8 28 d0          	vmovaps xmm2,xmm0
    244c:	85 c0                	test   eax,eax
    244e:	74 69                	je     24b9 <_Z14testCollisionsP8_IO_FILEPFj8string_tE8TestDataj+0x129>
    2450:	48 8b 45 b0          	mov    rax,QWORD PTR [rbp-0x50]
    2454:	31 db                	xor    ebx,ebx
    2456:	c5 e8 57 d2          	vxorps xmm2,xmm2,xmm2
    245a:	4c 8d 3d 97 1c 00 00 	lea    r15,[rip+0x1c97]        # 40f8 <_IO_stdin_used+0xf8>
    2461:	0f 1f 80 00 00 00 00 	nop    DWORD PTR [rax+0x0]
    2468:	4c 8d 34 5b          	lea    r14,[rbx+rbx*2]
    246c:	89 d9                	mov    ecx,ebx
    246e:	4c 89 fa             	mov    rdx,r15
    2471:	be 02 00 00 00       	mov    esi,0x2
    2476:	49 c1 e6 03          	shl    r14,0x3
    247a:	4c 89 ef             	mov    rdi,r13
    247d:	c5 fa 11 55 90       	vmovss DWORD PTR [rbp-0x70],xmm2
    2482:	48 83 c3 01          	add    rbx,0x1
    2486:	46 8b 44 30 10       	mov    r8d,DWORD PTR [rax+r14*1+0x10]
    248b:	31 c0                	xor    eax,eax
    248d:	e8 ce ec ff ff       	call   1160 <__fprintf_chk@plt>
    2492:	48 8b 45 b0          	mov    rax,QWORD PTR [rbp-0x50]
    2496:	c5 e0 57 db          	vxorps xmm3,xmm3,xmm3
    249a:	c5 fa 10 55 90       	vmovss xmm2,DWORD PTR [rbp-0x70]
    249f:	42 8b 54 30 10       	mov    edx,DWORD PTR [rax+r14*1+0x10]
    24a4:	c4 e1 e2 2a c2       	vcvtsi2ss xmm0,xmm3,rdx
    24a9:	8b 55 b8             	mov    edx,DWORD PTR [rbp-0x48]
    24ac:	c5 ea 58 d0          	vaddss xmm2,xmm2,xmm0
    24b0:	39 d3                	cmp    ebx,edx
    24b2:	72 b4                	jb     2468 <_Z14testCollisionsP8_IO_FILEPFj8string_tE8TestDataj+0xd8>
    24b4:	c4 e1 e2 2a c2       	vcvtsi2ss xmm0,xmm3,rdx
    24b9:	c5 ea 5e d0          	vdivss xmm2,xmm2,xmm0
    24bd:	bf 02 00 00 00       	mov    edi,0x2
    24c2:	b8 01 00 00 00       	mov    eax,0x1
    24c7:	48 8d 35 31 1c 00 00 	lea    rsi,[rip+0x1c31]        # 40ff <_IO_stdin_used+0xff>
    24ce:	c5 fa 11 55 90       	vmovss DWORD PTR [rbp-0x70],xmm2
    24d3:	c5 ea 5a c2          	vcvtss2sd xmm0,xmm2,xmm2
    24d7:	e8 54 eb ff ff       	call   1030 <__printf_chk@plt>
    24dc:	8b 75 b8             	mov    esi,DWORD PTR [rbp-0x48]
    24df:	85 f6                	test   esi,esi
    24e1:	0f 84 b9 02 00 00    	je     27a0 <_Z14testCollisionsP8_IO_FILEPFj8string_tE8TestDataj+0x410>
    24e7:	8d 46 ff             	lea    eax,[rsi-0x1]
    24ea:	48 8b 7d b0          	mov    rdi,QWORD PTR [rbp-0x50]
    24ee:	c5 fa 10 55 90       	vmovss xmm2,DWORD PTR [rbp-0x70]
    24f3:	83 f8 06             	cmp    eax,0x6
    24f6:	0f 86 b9 02 00 00    	jbe    27b5 <_Z14testCollisionsP8_IO_FILEPFj8string_tE8TestDataj+0x425>
    24fc:	48 8d 47 10          	lea    rax,[rdi+0x10]
    2500:	c4 e2 7d 18 ea       	vbroadcastss ymm5,xmm2
    2505:	c5 c0 57 ff          	vxorps xmm7,xmm7,xmm7
    2509:	89 f2                	mov    edx,esi
    250b:	c4 e2 7d 18 25 f4 1a 	vbroadcastss ymm4,DWORD PTR [rip+0x1af4]        # 4008 <_IO_stdin_used+0x8>
    2512:	00 00 
    2514:	c1 ea 03             	shr    edx,0x3
    2517:	48 b9 00 00 00 00 ff 	movabs rcx,0xffffffff00000000
    251e:	ff ff ff 
    2521:	4c 8d 04 52          	lea    r8,[rdx+rdx*2]
    2525:	ba ff ff 00 00       	mov    edx,0xffff
    252a:	49 c1 e0 06          	shl    r8,0x6
    252e:	c5 f9 6e da          	vmovd  xmm3,edx
    2532:	49 01 c0             	add    r8,rax
    2535:	c4 e2 7d 58 db       	vpbroadcastd ymm3,xmm3
    253a:	66 0f 1f 44 00 00    	nop    WORD PTR [rax+rax*1+0x0]
    2540:	8b 50 18             	mov    edx,DWORD PTR [rax+0x18]
    2543:	44 8b 08             	mov    r9d,DWORD PTR [rax]
    2546:	c5 c9 ef f6          	vpxor  xmm6,xmm6,xmm6
    254a:	48 05 c0 00 00 00    	add    rax,0xc0
    2550:	c5 fd 7f 75 90       	vmovdqa YMMWORD PTR [rbp-0x70],ymm6
    2555:	48 c1 e2 20          	shl    rdx,0x20
    2559:	49 09 d1             	or     r9,rdx
    255c:	48 8b 55 98          	mov    rdx,QWORD PTR [rbp-0x68]
    2560:	4c 89 4d 90          	mov    QWORD PTR [rbp-0x70],r9
    2564:	44 8b 88 70 ff ff ff 	mov    r9d,DWORD PTR [rax-0x90]
    256b:	48 21 ca             	and    rdx,rcx
    256e:	4c 09 ca             	or     rdx,r9
    2571:	44 8b 48 88          	mov    r9d,DWORD PTR [rax-0x78]
    2575:	89 d2                	mov    edx,edx
    2577:	49 c1 e1 20          	shl    r9,0x20
    257b:	4c 09 ca             	or     rdx,r9
    257e:	44 8b 48 a0          	mov    r9d,DWORD PTR [rax-0x60]
    2582:	48 89 55 98          	mov    QWORD PTR [rbp-0x68],rdx
    2586:	48 8b 55 a0          	mov    rdx,QWORD PTR [rbp-0x60]
    258a:	48 21 ca             	and    rdx,rcx
    258d:	4c 09 ca             	or     rdx,r9
    2590:	44 8b 48 b8          	mov    r9d,DWORD PTR [rax-0x48]
    2594:	89 d2                	mov    edx,edx
    2596:	49 c1 e1 20          	shl    r9,0x20
    259a:	4c 09 ca             	or     rdx,r9
    259d:	44 8b 48 d0          	mov    r9d,DWORD PTR [rax-0x30]
    25a1:	48 89 55 a0          	mov    QWORD PTR [rbp-0x60],rdx
    25a5:	48 8b 55 a8          	mov    rdx,QWORD PTR [rbp-0x58]
    25a9:	48 21 ca             	and    rdx,rcx
    25ac:	4c 09 ca             	or     rdx,r9
    25af:	44 8b 48 e8          	mov    r9d,DWORD PTR [rax-0x18]
    25b3:	89 d2                	mov    edx,edx
    25b5:	49 c1 e1 20          	shl    r9,0x20
    25b9:	4c 09 ca             	or     rdx,r9
    25bc:	48 89 55 a8          	mov    QWORD PTR [rbp-0x58],rdx
    25c0:	c5 fd 6f 75 90       	vmovdqa ymm6,YMMWORD PTR [rbp-0x70]
    25c5:	c5 e5 db 45 90       	vpand  ymm0,ymm3,YMMWORD PTR [rbp-0x70]
    25ca:	c5 f5 72 d6 10       	vpsrld ymm1,ymm6,0x10
    25cf:	c5 fc 5b c9          	vcvtdq2ps ymm1,ymm1
    25d3:	c5 f4 59 cc          	vmulps ymm1,ymm1,ymm4
    25d7:	c5 fc 5b c0          	vcvtdq2ps ymm0,ymm0
    25db:	c5 fc 58 c1          	vaddps ymm0,ymm0,ymm1
    25df:	c5 fc 5c c5          	vsubps ymm0,ymm0,ymm5
    25e3:	c5 fc 59 c0          	vmulps ymm0,ymm0,ymm0
    25e7:	c5 c2 58 c8          	vaddss xmm1,xmm7,xmm0
    25eb:	c5 f8 c6 f8 55       	vshufps xmm7,xmm0,xmm0,0x55
    25f0:	c5 f8 c6 f0 ff       	vshufps xmm6,xmm0,xmm0,0xff
    25f5:	c5 f2 58 cf          	vaddss xmm1,xmm1,xmm7
    25f9:	c5 f8 15 f8          	vunpckhps xmm7,xmm0,xmm0
    25fd:	c4 e3 7d 19 c0 01    	vextractf128 xmm0,ymm0,0x1
    2603:	c5 f2 58 cf          	vaddss xmm1,xmm1,xmm7
    2607:	c5 f2 58 ce          	vaddss xmm1,xmm1,xmm6
    260b:	c5 f8 c6 f0 55       	vshufps xmm6,xmm0,xmm0,0x55
    2610:	c5 f2 58 c8          	vaddss xmm1,xmm1,xmm0
    2614:	c5 f2 58 ce          	vaddss xmm1,xmm1,xmm6
    2618:	c5 f8 15 f0          	vunpckhps xmm6,xmm0,xmm0
    261c:	c5 f8 c6 c0 ff       	vshufps xmm0,xmm0,xmm0,0xff
    2621:	c5 f2 58 ce          	vaddss xmm1,xmm1,xmm6
    2625:	c5 f2 58 f8          	vaddss xmm7,xmm1,xmm0
    2629:	49 39 c0             	cmp    r8,rax
    262c:	0f 85 0e ff ff ff    	jne    2540 <_Z14testCollisionsP8_IO_FILEPFj8string_tE8TestDataj+0x1b0>
    2632:	89 f0                	mov    eax,esi
    2634:	83 e0 f8             	and    eax,0xfffffff8
    2637:	40 f6 c6 07          	test   sil,0x7
    263b:	0f 84 6f 01 00 00    	je     27b0 <_Z14testCollisionsP8_IO_FILEPFj8string_tE8TestDataj+0x420>
    2641:	c5 f8 77             	vzeroupper
    2644:	89 f1                	mov    ecx,esi
    2646:	29 c1                	sub    ecx,eax
    2648:	8d 51 ff             	lea    edx,[rcx-0x1]
    264b:	83 fa 02             	cmp    edx,0x2
    264e:	0f 86 8b 00 00 00    	jbe    26df <_Z14testCollisionsP8_IO_FILEPFj8string_tE8TestDataj+0x34f>
    2654:	c4 e2 79 18 1d ab 19 	vbroadcastss xmm3,DWORD PTR [rip+0x19ab]        # 4008 <_IO_stdin_used+0x8>
    265b:	00 00 
    265d:	89 c2                	mov    edx,eax
    265f:	bb ff ff 00 00       	mov    ebx,0xffff
    2664:	48 8d 14 52          	lea    rdx,[rdx+rdx*2]
    2668:	c5 f9 6e cb          	vmovd  xmm1,ebx
    266c:	c5 f9 6e 44 d7 10    	vmovd  xmm0,DWORD PTR [rdi+rdx*8+0x10]
    2672:	c4 e3 79 22 44 d7 28 	vpinsrd xmm0,xmm0,DWORD PTR [rdi+rdx*8+0x28],0x1
    2679:	01 
    267a:	c5 f9 70 c9 00       	vpshufd xmm1,xmm1,0x0
    267f:	c4 e3 79 22 44 d7 40 	vpinsrd xmm0,xmm0,DWORD PTR [rdi+rdx*8+0x40],0x2
    2686:	02 
    2687:	c4 e3 79 22 44 d7 58 	vpinsrd xmm0,xmm0,DWORD PTR [rdi+rdx*8+0x58],0x3
    268e:	03 
    268f:	89 ca                	mov    edx,ecx
    2691:	83 e2 fc             	and    edx,0xfffffffc
    2694:	c5 f9 db c9          	vpand  xmm1,xmm0,xmm1
    2698:	c5 f9 72 d0 10       	vpsrld xmm0,xmm0,0x10
    269d:	01 d0                	add    eax,edx
    269f:	83 e1 03             	and    ecx,0x3
    26a2:	c5 f8 5b c0          	vcvtdq2ps xmm0,xmm0
    26a6:	c5 f8 59 c3          	vmulps xmm0,xmm0,xmm3
    26aa:	c5 f8 5b c9          	vcvtdq2ps xmm1,xmm1
    26ae:	c5 f0 58 c8          	vaddps xmm1,xmm1,xmm0
    26b2:	c5 e8 c6 c2 00       	vshufps xmm0,xmm2,xmm2,0x0
    26b7:	c5 f0 5c c8          	vsubps xmm1,xmm1,xmm0
    26bb:	c5 f0 59 c9          	vmulps xmm1,xmm1,xmm1
    26bf:	c5 c2 58 c1          	vaddss xmm0,xmm7,xmm1
    26c3:	c5 f0 c6 d9 55       	vshufps xmm3,xmm1,xmm1,0x55
    26c8:	c5 fa 58 c3          	vaddss xmm0,xmm0,xmm3
    26cc:	c5 f0 15 d9          	vunpckhps xmm3,xmm1,xmm1
    26d0:	c5 f0 c6 c9 ff       	vshufps xmm1,xmm1,xmm1,0xff
    26d5:	c5 fa 58 c3          	vaddss xmm0,xmm0,xmm3
    26d9:	c5 fa 58 f9          	vaddss xmm7,xmm0,xmm1
    26dd:	74 5f                	je     273e <_Z14testCollisionsP8_IO_FILEPFj8string_tE8TestDataj+0x3ae>
    26df:	89 c2                	mov    edx,eax
    26e1:	c5 d8 57 e4          	vxorps xmm4,xmm4,xmm4
    26e5:	48 8d 14 52          	lea    rdx,[rdx+rdx*2]
    26e9:	8b 54 d7 10          	mov    edx,DWORD PTR [rdi+rdx*8+0x10]
    26ed:	c4 e1 da 2a c2       	vcvtsi2ss xmm0,xmm4,rdx
    26f2:	8d 50 01             	lea    edx,[rax+0x1]
    26f5:	c5 fa 5c c2          	vsubss xmm0,xmm0,xmm2
    26f9:	c5 fa 59 c0          	vmulss xmm0,xmm0,xmm0
    26fd:	c5 c2 58 f8          	vaddss xmm7,xmm7,xmm0
    2701:	39 f2                	cmp    edx,esi
    2703:	73 39                	jae    273e <_Z14testCollisionsP8_IO_FILEPFj8string_tE8TestDataj+0x3ae>
    2705:	48 8d 14 52          	lea    rdx,[rdx+rdx*2]
    2709:	83 c0 02             	add    eax,0x2
    270c:	8b 54 d7 10          	mov    edx,DWORD PTR [rdi+rdx*8+0x10]
    2710:	c4 e1 da 2a c2       	vcvtsi2ss xmm0,xmm4,rdx
    2715:	c5 fa 5c c2          	vsubss xmm0,xmm0,xmm2
    2719:	c5 fa 59 c0          	vmulss xmm0,xmm0,xmm0
    271d:	c5 c2 58 f8          	vaddss xmm7,xmm7,xmm0
    2721:	39 f0                	cmp    eax,esi
    2723:	73 19                	jae    273e <_Z14testCollisionsP8_IO_FILEPFj8string_tE8TestDataj+0x3ae>
    2725:	48 8d 04 40          	lea    rax,[rax+rax*2]
    2729:	8b 44 c7 10          	mov    eax,DWORD PTR [rdi+rax*8+0x10]
    272d:	c4 e1 da 2a c0       	vcvtsi2ss xmm0,xmm4,rax
    2732:	c5 fa 5c c2          	vsubss xmm0,xmm0,xmm2
    2736:	c5 fa 59 c0          	vmulss xmm0,xmm0,xmm0
    273a:	c5 c2 58 f8          	vaddss xmm7,xmm7,xmm0
    273e:	c5 d0 57 ed          	vxorps xmm5,xmm5,xmm5
    2742:	c4 e1 d2 2a c6       	vcvtsi2ss xmm0,xmm5,rsi
    2747:	c5 c2 5e f8          	vdivss xmm7,xmm7,xmm0
    274b:	c5 f8 57 c0          	vxorps xmm0,xmm0,xmm0
    274f:	c5 f8 2e c7          	vucomiss xmm0,xmm7
    2753:	77 6b                	ja     27c0 <_Z14testCollisionsP8_IO_FILEPFj8string_tE8TestDataj+0x430>
    2755:	c5 c2 51 ff          	vsqrtss xmm7,xmm7,xmm7
    2759:	bf 02 00 00 00       	mov    edi,0x2
    275e:	48 8d 35 b4 19 00 00 	lea    rsi,[rip+0x19b4]        # 4119 <_IO_stdin_used+0x119>
    2765:	b8 01 00 00 00       	mov    eax,0x1
    276a:	c5 c2 5a c7          	vcvtss2sd xmm0,xmm7,xmm7
    276e:	e8 bd e8 ff ff       	call   1030 <__printf_chk@plt>
    2773:	4c 89 e7             	mov    rdi,r12
    2776:	e8 75 f0 ff ff       	call   17f0 <_Z11hashMapDtorP7HashMap>
    277b:	48 8b 45 c8          	mov    rax,QWORD PTR [rbp-0x38]
    277f:	64 48 2b 04 25 28 00 	sub    rax,QWORD PTR fs:0x28
    2786:	00 00 
    2788:	75 64                	jne    27ee <_Z14testCollisionsP8_IO_FILEPFj8string_tE8TestDataj+0x45e>
    278a:	48 8d 65 d0          	lea    rsp,[rbp-0x30]
    278e:	5b                   	pop    rbx
    278f:	41 5a                	pop    r10
    2791:	41 5c                	pop    r12
    2793:	41 5d                	pop    r13
    2795:	41 5e                	pop    r14
    2797:	41 5f                	pop    r15
    2799:	5d                   	pop    rbp
    279a:	49 8d 62 f8          	lea    rsp,[r10-0x8]
    279e:	c3                   	ret
    279f:	90                   	nop
    27a0:	c5 c0 57 ff          	vxorps xmm7,xmm7,xmm7
    27a4:	c5 c2 5e ff          	vdivss xmm7,xmm7,xmm7
    27a8:	eb ab                	jmp    2755 <_Z14testCollisionsP8_IO_FILEPFj8string_tE8TestDataj+0x3c5>
    27aa:	66 0f 1f 44 00 00    	nop    WORD PTR [rax+rax*1+0x0]
    27b0:	c5 f8 77             	vzeroupper
    27b3:	eb 89                	jmp    273e <_Z14testCollisionsP8_IO_FILEPFj8string_tE8TestDataj+0x3ae>
    27b5:	c5 c0 57 ff          	vxorps xmm7,xmm7,xmm7
    27b9:	31 c0                	xor    eax,eax
    27bb:	e9 84 fe ff ff       	jmp    2644 <_Z14testCollisionsP8_IO_FILEPFj8string_tE8TestDataj+0x2b4>
    27c0:	c5 f8 28 c7          	vmovaps xmm0,xmm7
    27c4:	e8 b7 e9 ff ff       	call   1180 <sqrtf@plt>
    27c9:	c5 f8 28 f8          	vmovaps xmm7,xmm0
    27cd:	eb 8a                	jmp    2759 <_Z14testCollisionsP8_IO_FILEPFj8string_tE8TestDataj+0x3c9>
    27cf:	48 8d 0d 22 1c 00 00 	lea    rcx,[rip+0x1c22]        # 43f8 <_IO_stdin_used+0x3f8>
    27d6:	ba 48 00 00 00       	mov    edx,0x48
    27db:	48 8d 35 db 18 00 00 	lea    rsi,[rip+0x18db]        # 40bd <_IO_stdin_used+0xbd>
    27e2:	48 8d 3d f0 18 00 00 	lea    rdi,[rip+0x18f0]        # 40d9 <_IO_stdin_used+0xd9>
    27e9:	e8 82 e8 ff ff       	call   1070 <__assert_fail@plt>
    27ee:	e8 ed e8 ff ff       	call   10e0 <__stack_chk_fail@plt>
    27f3:	66 66 2e 0f 1f 84 00 	data16 cs nop WORD PTR [rax+rax*1+0x0]
    27fa:	00 00 00 00 
    27fe:	66 90                	xchg   ax,ax

0000000000002800 <_Z14testSearchTimeP8_IO_FILEPFj8string_tE8TestDatajj>:
    2800:	f3 0f 1e fa          	endbr64
    2804:	41 55                	push   r13
    2806:	4c 8d 6c 24 10       	lea    r13,[rsp+0x10]
    280b:	48 83 e4 e0          	and    rsp,0xffffffffffffffe0
    280f:	41 ff 75 f8          	push   QWORD PTR [r13-0x8]
    2813:	55                   	push   rbp
    2814:	48 89 e5             	mov    rbp,rsp
    2817:	41 57                	push   r15
    2819:	41 56                	push   r14
    281b:	41 55                	push   r13
    281d:	49 89 d5             	mov    r13,rdx
    2820:	41 54                	push   r12
    2822:	53                   	push   rbx
    2823:	48 81 ec 88 00 00 00 	sub    rsp,0x88
    282a:	48 89 7d 98          	mov    QWORD PTR [rbp-0x68],rdi
    282e:	44 89 85 5c ff ff ff 	mov    DWORD PTR [rbp-0xa4],r8d
    2835:	64 48 8b 14 25 28 00 	mov    rdx,QWORD PTR fs:0x28
    283c:	00 00 
    283e:	48 89 55 c8          	mov    QWORD PTR [rbp-0x38],rdx
    2842:	31 d2                	xor    edx,edx
    2844:	48 85 ff             	test   rdi,rdi
    2847:	0f 84 2e 04 00 00    	je     2c7b <_Z14testSearchTimeP8_IO_FILEPFj8string_tE8TestDatajj+0x47b>
    284d:	bf 0a 00 00 00       	mov    edi,0xa
    2852:	48 89 75 a8          	mov    QWORD PTR [rbp-0x58],rsi
    2856:	48 89 cb             	mov    rbx,rcx
    2859:	45 89 cf             	mov    r15d,r9d
    285c:	41 89 ce             	mov    r14d,ecx
    285f:	4c 8d 65 b0          	lea    r12,[rbp-0x50]
    2863:	e8 58 e8 ff ff       	call   10c0 <srand@plt>
    2868:	48 8b 75 a8          	mov    rsi,QWORD PTR [rbp-0x58]
    286c:	44 89 fa             	mov    edx,r15d
    286f:	4c 89 e7             	mov    rdi,r12
    2872:	e8 19 ec ff ff       	call   1490 <_Z11hashMapCtorPFj8string_tEj>
    2877:	85 db                	test   ebx,ebx
    2879:	74 3e                	je     28b9 <_Z14testSearchTimeP8_IO_FILEPFj8string_tE8TestDatajj+0xb9>
    287b:	89 db                	mov    ebx,ebx
    287d:	4d 89 ef             	mov    r15,r13
    2880:	48 c1 e3 06          	shl    rbx,0x6
    2884:	4c 01 eb             	add    rbx,r13
    2887:	c4 c1 7d 6f 2f       	vmovdqa ymm5,YMMWORD PTR [r15]
    288c:	48 83 ec 40          	sub    rsp,0x40
    2890:	4c 89 e7             	mov    rdi,r12
    2893:	c5 fd 7f 2c 24       	vmovdqa YMMWORD PTR [rsp],ymm5
    2898:	c4 c1 7d 6f 67 20    	vmovdqa ymm4,YMMWORD PTR [r15+0x20]
    289e:	c5 fd 7f 64 24 20    	vmovdqa YMMWORD PTR [rsp+0x20],ymm4
    28a4:	c5 f8 77             	vzeroupper
    28a7:	e8 94 ec ff ff       	call   1540 <_Z17hashMapAddElementP7HashMap8string_t>
    28ac:	49 83 c7 40          	add    r15,0x40
    28b0:	48 83 c4 40          	add    rsp,0x40
    28b4:	49 39 df             	cmp    r15,rbx
    28b7:	75 ce                	jne    2887 <_Z14testSearchTimeP8_IO_FILEPFj8string_tE8TestDatajj+0x87>
    28b9:	be 04 00 00 00       	mov    esi,0x4
    28be:	bf 40 42 0f 00       	mov    edi,0xf4240
    28c3:	e8 b8 e7 ff ff       	call   1080 <calloc@plt>
    28c8:	be 08 00 00 00       	mov    esi,0x8
    28cd:	48 89 85 68 ff ff ff 	mov    QWORD PTR [rbp-0x98],rax
    28d4:	49 89 c7             	mov    r15,rax
    28d7:	8b 85 5c ff ff ff    	mov    eax,DWORD PTR [rbp-0xa4]
    28dd:	4c 89 fb             	mov    rbx,r15
    28e0:	48 89 c7             	mov    rdi,rax
    28e3:	48 89 45 90          	mov    QWORD PTR [rbp-0x70],rax
    28e7:	48 81 c3 00 09 3d 00 	add    rbx,0x3d0900
    28ee:	e8 8d e7 ff ff       	call   1080 <calloc@plt>
    28f3:	48 89 45 a8          	mov    QWORD PTR [rbp-0x58],rax
    28f7:	66 0f 1f 84 00 00 00 	nop    WORD PTR [rax+rax*1+0x0]
    28fe:	00 00 
    2900:	e8 3b e7 ff ff       	call   1040 <rand@plt>
    2905:	31 d2                	xor    edx,edx
    2907:	49 83 c7 04          	add    r15,0x4
    290b:	41 f7 f6             	div    r14d
    290e:	41 89 57 fc          	mov    DWORD PTR [r15-0x4],edx
    2912:	49 39 df             	cmp    r15,rbx
    2915:	75 e9                	jne    2900 <_Z14testSearchTimeP8_IO_FILEPFj8string_tE8TestDatajj+0x100>
    2917:	8b 85 5c ff ff ff    	mov    eax,DWORD PTR [rbp-0xa4]
    291d:	85 c0                	test   eax,eax
    291f:	0f 84 ee 02 00 00    	je     2c13 <_Z14testSearchTimeP8_IO_FILEPFj8string_tE8TestDatajj+0x413>
    2925:	4c 8b 75 a8          	mov    r14,QWORD PTR [rbp-0x58]
    2929:	48 8b 45 90          	mov    rax,QWORD PTR [rbp-0x70]
    292d:	49 8d 04 c6          	lea    rax,[r14+rax*8]
    2931:	4c 89 b5 60 ff ff ff 	mov    QWORD PTR [rbp-0xa0],r14
    2938:	48 89 45 a0          	mov    QWORD PTR [rbp-0x60],rax
    293c:	e8 cf e7 ff ff       	call   1110 <_ZNSt6chrono3_V212steady_clock3nowEv@plt>
    2941:	4c 8b bd 68 ff ff ff 	mov    r15,QWORD PTR [rbp-0x98]
    2948:	48 89 85 70 ff ff ff 	mov    QWORD PTR [rbp-0x90],rax
    294f:	90                   	nop
    2950:	41 8b 07             	mov    eax,DWORD PTR [r15]
    2953:	48 83 ec 40          	sub    rsp,0x40
    2957:	4c 89 e7             	mov    rdi,r12
    295a:	48 c1 e0 06          	shl    rax,0x6
    295e:	4c 01 e8             	add    rax,r13
    2961:	c5 fd 6f 30          	vmovdqa ymm6,YMMWORD PTR [rax]
    2965:	c5 fd 7f 34 24       	vmovdqa YMMWORD PTR [rsp],ymm6
    296a:	c5 fd 6f 78 20       	vmovdqa ymm7,YMMWORD PTR [rax+0x20]
    296f:	c5 fd 7f 7c 24 20    	vmovdqa YMMWORD PTR [rsp+0x20],ymm7
    2975:	c5 f8 77             	vzeroupper
    2978:	e8 73 ed ff ff       	call   16f0 <_Z20hashMapSearchElementP7HashMap8string_t>
    297d:	49 83 c7 04          	add    r15,0x4
    2981:	48 83 c4 40          	add    rsp,0x40
    2985:	4c 39 fb             	cmp    rbx,r15
    2988:	75 c6                	jne    2950 <_Z14testSearchTimeP8_IO_FILEPFj8string_tE8TestDatajj+0x150>
    298a:	e8 81 e7 ff ff       	call   1110 <_ZNSt6chrono3_V212steady_clock3nowEv@plt>
    298f:	48 8b 8d 70 ff ff ff 	mov    rcx,QWORD PTR [rbp-0x90]
    2996:	c5 d1 57 ed          	vxorpd xmm5,xmm5,xmm5
    299a:	49 83 c6 08          	add    r14,0x8
    299e:	48 29 c8             	sub    rax,rcx
    29a1:	48 89 c1             	mov    rcx,rax
    29a4:	48 b8 cf f7 53 e3 a5 	movabs rax,0x20c49ba5e353f7cf
    29ab:	9b c4 20 
    29ae:	48 f7 e9             	imul   rcx
    29b1:	48 c1 f9 3f          	sar    rcx,0x3f
    29b5:	48 8b 45 a0          	mov    rax,QWORD PTR [rbp-0x60]
    29b9:	48 c1 fa 07          	sar    rdx,0x7
    29bd:	48 29 ca             	sub    rdx,rcx
    29c0:	c4 e1 d3 2a c2       	vcvtsi2sd xmm0,xmm5,rdx
    29c5:	c4 c1 7b 11 46 f8    	vmovsd QWORD PTR [r14-0x8],xmm0
    29cb:	49 39 c6             	cmp    r14,rax
    29ce:	0f 85 68 ff ff ff    	jne    293c <_Z14testSearchTimeP8_IO_FILEPFj8string_tE8TestDatajj+0x13c>
    29d4:	4c 89 e7             	mov    rdi,r12
    29d7:	48 8d 1d 74 17 00 00 	lea    rbx,[rip+0x1774]        # 4152 <_IO_stdin_used+0x152>
    29de:	45 31 e4             	xor    r12d,r12d
    29e1:	e8 0a ee ff ff       	call   17f0 <_Z11hashMapDtorP7HashMap>
    29e6:	48 8b 4d 98          	mov    rcx,QWORD PTR [rbp-0x68]
    29ea:	ba 13 00 00 00       	mov    edx,0x13
    29ef:	be 01 00 00 00       	mov    esi,0x1
    29f4:	48 8d 3d 38 17 00 00 	lea    rdi,[rip+0x1738]        # 4133 <_IO_stdin_used+0x133>
    29fb:	e8 90 e7 ff ff       	call   1190 <fwrite@plt>
    2a00:	c5 e9 57 d2          	vxorpd xmm2,xmm2,xmm2
    2a04:	48 8b 45 a8          	mov    rax,QWORD PTR [rbp-0x58]
    2a08:	48 8b 7d 98          	mov    rdi,QWORD PTR [rbp-0x68]
    2a0c:	44 89 e1             	mov    ecx,r12d
    2a0f:	48 89 da             	mov    rdx,rbx
    2a12:	be 02 00 00 00       	mov    esi,0x2
    2a17:	c5 fb 11 55 a0       	vmovsd QWORD PTR [rbp-0x60],xmm2
    2a1c:	c4 a1 7b 10 04 e0    	vmovsd xmm0,QWORD PTR [rax+r12*8]
    2a22:	b8 01 00 00 00       	mov    eax,0x1
    2a27:	49 83 c4 01          	add    r12,0x1
    2a2b:	c5 fb 11 85 70 ff ff 	vmovsd QWORD PTR [rbp-0x90],xmm0
    2a32:	ff 
    2a33:	e8 28 e7 ff ff       	call   1160 <__fprintf_chk@plt>
    2a38:	c5 fb 10 85 70 ff ff 	vmovsd xmm0,QWORD PTR [rbp-0x90]
    2a3f:	ff 
    2a40:	c5 fb 10 55 a0       	vmovsd xmm2,QWORD PTR [rbp-0x60]
    2a45:	c5 eb 58 d0          	vaddsd xmm2,xmm2,xmm0
    2a49:	4c 39 65 90          	cmp    QWORD PTR [rbp-0x70],r12
    2a4d:	75 b5                	jne    2a04 <_Z14testSearchTimeP8_IO_FILEPFj8string_tE8TestDatajj+0x204>
    2a4f:	8b b5 5c ff ff ff    	mov    esi,DWORD PTR [rbp-0xa4]
    2a55:	c5 d9 57 e4          	vxorpd xmm4,xmm4,xmm4
    2a59:	c5 db 2a c6          	vcvtsi2sd xmm0,xmm4,esi
    2a5d:	89 f0                	mov    eax,esi
    2a5f:	83 e8 01             	sub    eax,0x1
    2a62:	c5 eb 5e d0          	vdivsd xmm2,xmm2,xmm0
    2a66:	83 f8 02             	cmp    eax,0x2
    2a69:	0f 86 e2 01 00 00    	jbe    2c51 <_Z14testSearchTimeP8_IO_FILEPFj8string_tE8TestDatajj+0x451>
    2a6f:	89 f0                	mov    eax,esi
    2a71:	48 8b 4d a8          	mov    rcx,QWORD PTR [rbp-0x58]
    2a75:	c4 e2 7d 19 ea       	vbroadcastsd ymm5,xmm2
    2a7a:	c5 f9 57 c0          	vxorpd xmm0,xmm0,xmm0
    2a7e:	c1 e8 02             	shr    eax,0x2
    2a81:	48 c1 e0 05          	shl    rax,0x5
    2a85:	48 01 c8             	add    rax,rcx
    2a88:	48 8b b5 60 ff ff ff 	mov    rsi,QWORD PTR [rbp-0xa0]
    2a8f:	c5 fd 10 26          	vmovupd ymm4,YMMWORD PTR [rsi]
    2a93:	48 83 c6 20          	add    rsi,0x20
    2a97:	48 89 b5 60 ff ff ff 	mov    QWORD PTR [rbp-0xa0],rsi
    2a9e:	c5 dd 5c cd          	vsubpd ymm1,ymm4,ymm5
    2aa2:	c5 fd 29 a5 70 ff ff 	vmovapd YMMWORD PTR [rbp-0x90],ymm4
    2aa9:	ff 
    2aaa:	c5 f5 59 c9          	vmulpd ymm1,ymm1,ymm1
    2aae:	c5 f3 58 c0          	vaddsd xmm0,xmm1,xmm0
    2ab2:	c5 f1 15 d9          	vunpckhpd xmm3,xmm1,xmm1
    2ab6:	c4 e3 7d 19 c9 01    	vextractf128 xmm1,ymm1,0x1
    2abc:	c5 e3 58 d8          	vaddsd xmm3,xmm3,xmm0
    2ac0:	c5 f3 58 c3          	vaddsd xmm0,xmm1,xmm3
    2ac4:	c5 f1 15 c9          	vunpckhpd xmm1,xmm1,xmm1
    2ac8:	c5 fb 58 c1          	vaddsd xmm0,xmm0,xmm1
    2acc:	48 39 f0             	cmp    rax,rsi
    2acf:	75 b7                	jne    2a88 <_Z14testSearchTimeP8_IO_FILEPFj8string_tE8TestDatajj+0x288>
    2ad1:	8b 85 5c ff ff ff    	mov    eax,DWORD PTR [rbp-0xa4]
    2ad7:	a8 03                	test   al,0x3
    2ad9:	0f 84 2c 01 00 00    	je     2c0b <_Z14testSearchTimeP8_IO_FILEPFj8string_tE8TestDatajj+0x40b>
    2adf:	83 e0 fc             	and    eax,0xfffffffc
    2ae2:	c5 f8 77             	vzeroupper
    2ae5:	8b 95 5c ff ff ff    	mov    edx,DWORD PTR [rbp-0xa4]
    2aeb:	29 c2                	sub    edx,eax
    2aed:	83 fa 01             	cmp    edx,0x1
    2af0:	74 2d                	je     2b1f <_Z14testSearchTimeP8_IO_FILEPFj8string_tE8TestDatajj+0x31f>
    2af2:	48 8b 75 a8          	mov    rsi,QWORD PTR [rbp-0x58]
    2af6:	89 c1                	mov    ecx,eax
    2af8:	c5 fb 12 da          	vmovddup xmm3,xmm2
    2afc:	c5 f9 10 0c ce       	vmovupd xmm1,XMMWORD PTR [rsi+rcx*8]
    2b01:	c5 f1 5c cb          	vsubpd xmm1,xmm1,xmm3
    2b05:	c5 f1 59 c9          	vmulpd xmm1,xmm1,xmm1
    2b09:	c5 fb 58 c1          	vaddsd xmm0,xmm0,xmm1
    2b0d:	c5 f1 15 c9          	vunpckhpd xmm1,xmm1,xmm1
    2b11:	c5 f3 58 c0          	vaddsd xmm0,xmm1,xmm0
    2b15:	f6 c2 01             	test   dl,0x1
    2b18:	74 1a                	je     2b34 <_Z14testSearchTimeP8_IO_FILEPFj8string_tE8TestDatajj+0x334>
    2b1a:	83 e2 fe             	and    edx,0xfffffffe
    2b1d:	01 d0                	add    eax,edx
    2b1f:	48 8b 75 a8          	mov    rsi,QWORD PTR [rbp-0x58]
    2b23:	c5 fb 10 0c c6       	vmovsd xmm1,QWORD PTR [rsi+rax*8]
    2b28:	c5 f3 5c ca          	vsubsd xmm1,xmm1,xmm2
    2b2c:	c5 f3 59 c9          	vmulsd xmm1,xmm1,xmm1
    2b30:	c5 fb 58 c1          	vaddsd xmm0,xmm0,xmm1
    2b34:	c5 d8 57 e4          	vxorps xmm4,xmm4,xmm4
    2b38:	c5 fb 5a c0          	vcvtsd2ss xmm0,xmm0,xmm0
    2b3c:	c5 da 2a 8d 5c ff ff 	vcvtsi2ss xmm1,xmm4,DWORD PTR [rbp-0xa4]
    2b43:	ff 
    2b44:	c5 fa 5e c1          	vdivss xmm0,xmm0,xmm1
    2b48:	c5 f0 57 c9          	vxorps xmm1,xmm1,xmm1
    2b4c:	c5 f8 2e c8          	vucomiss xmm1,xmm0
    2b50:	0f 87 49 01 00 00    	ja     2c9f <_Z14testSearchTimeP8_IO_FILEPFj8string_tE8TestDatajj+0x49f>
    2b56:	c5 fa 51 c0          	vsqrtss xmm0,xmm0,xmm0
    2b5a:	c5 fa 5a e0          	vcvtss2sd xmm4,xmm0,xmm0
    2b5e:	48 8d 35 f6 15 00 00 	lea    rsi,[rip+0x15f6]        # 415b <_IO_stdin_used+0x15b>
    2b65:	c4 e1 f9 7e e3       	vmovq  rbx,xmm4
    2b6a:	c5 eb 10 c2          	vmovsd xmm0,xmm2,xmm2
    2b6e:	bf 02 00 00 00       	mov    edi,0x2
    2b73:	b8 01 00 00 00       	mov    eax,0x1
    2b78:	c5 fb 11 95 70 ff ff 	vmovsd QWORD PTR [rbp-0x90],xmm2
    2b7f:	ff 
    2b80:	e8 ab e4 ff ff       	call   1030 <__printf_chk@plt>
    2b85:	c4 e1 f9 6e c3       	vmovq  xmm0,rbx
    2b8a:	bf 02 00 00 00       	mov    edi,0x2
    2b8f:	48 8d 35 e3 15 00 00 	lea    rsi,[rip+0x15e3]        # 4179 <_IO_stdin_used+0x179>
    2b96:	b8 01 00 00 00       	mov    eax,0x1
    2b9b:	e8 90 e4 ff ff       	call   1030 <__printf_chk@plt>
    2ba0:	c4 e1 f9 6e e3       	vmovq  xmm4,rbx
    2ba5:	c5 fb 10 95 70 ff ff 	vmovsd xmm2,QWORD PTR [rbp-0x90]
    2bac:	ff 
    2bad:	bf 02 00 00 00       	mov    edi,0x2
    2bb2:	48 8d 35 de 15 00 00 	lea    rsi,[rip+0x15de]        # 4197 <_IO_stdin_used+0x197>
    2bb9:	b8 01 00 00 00       	mov    eax,0x1
    2bbe:	c5 db 5e c2          	vdivsd xmm0,xmm4,xmm2
    2bc2:	c5 fb 59 05 b6 1a 00 	vmulsd xmm0,xmm0,QWORD PTR [rip+0x1ab6]        # 4680 <_IO_stdin_used+0x680>
    2bc9:	00 
    2bca:	e8 61 e4 ff ff       	call   1030 <__printf_chk@plt>
    2bcf:	48 8b 7d a8          	mov    rdi,QWORD PTR [rbp-0x58]
    2bd3:	e8 28 e5 ff ff       	call   1100 <free@plt>
    2bd8:	48 8b 45 c8          	mov    rax,QWORD PTR [rbp-0x38]
    2bdc:	64 48 2b 04 25 28 00 	sub    rax,QWORD PTR fs:0x28
    2be3:	00 00 
    2be5:	0f 85 af 00 00 00    	jne    2c9a <_Z14testSearchTimeP8_IO_FILEPFj8string_tE8TestDatajj+0x49a>
    2beb:	48 8b bd 68 ff ff ff 	mov    rdi,QWORD PTR [rbp-0x98]
    2bf2:	48 8d 65 d8          	lea    rsp,[rbp-0x28]
    2bf6:	5b                   	pop    rbx
    2bf7:	41 5c                	pop    r12
    2bf9:	41 5d                	pop    r13
    2bfb:	41 5e                	pop    r14
    2bfd:	41 5f                	pop    r15
    2bff:	5d                   	pop    rbp
    2c00:	49 8d 65 f0          	lea    rsp,[r13-0x10]
    2c04:	41 5d                	pop    r13
    2c06:	e9 f5 e4 ff ff       	jmp    1100 <free@plt>
    2c0b:	c5 f8 77             	vzeroupper
    2c0e:	e9 21 ff ff ff       	jmp    2b34 <_Z14testSearchTimeP8_IO_FILEPFj8string_tE8TestDatajj+0x334>
    2c13:	4c 89 e7             	mov    rdi,r12
    2c16:	e8 d5 eb ff ff       	call   17f0 <_Z11hashMapDtorP7HashMap>
    2c1b:	48 8b 4d 98          	mov    rcx,QWORD PTR [rbp-0x68]
    2c1f:	ba 13 00 00 00       	mov    edx,0x13
    2c24:	be 01 00 00 00       	mov    esi,0x1
    2c29:	48 8d 3d 03 15 00 00 	lea    rdi,[rip+0x1503]        # 4133 <_IO_stdin_used+0x133>
    2c30:	e8 5b e5 ff ff       	call   1190 <fwrite@plt>
    2c35:	c5 e9 57 d2          	vxorpd xmm2,xmm2,xmm2
    2c39:	48 83 7d a8 00       	cmp    QWORD PTR [rbp-0x58],0x0
    2c3e:	c5 eb 5e d2          	vdivsd xmm2,xmm2,xmm2
    2c42:	74 18                	je     2c5c <_Z14testSearchTimeP8_IO_FILEPFj8string_tE8TestDatajj+0x45c>
    2c44:	c5 f8 57 c0          	vxorps xmm0,xmm0,xmm0
    2c48:	c5 fa 5e c0          	vdivss xmm0,xmm0,xmm0
    2c4c:	e9 05 ff ff ff       	jmp    2b56 <_Z14testSearchTimeP8_IO_FILEPFj8string_tE8TestDatajj+0x356>
    2c51:	c5 f9 57 c0          	vxorpd xmm0,xmm0,xmm0
    2c55:	31 c0                	xor    eax,eax
    2c57:	e9 89 fe ff ff       	jmp    2ae5 <_Z14testSearchTimeP8_IO_FILEPFj8string_tE8TestDatajj+0x2e5>
    2c5c:	48 8d 0d 15 18 00 00 	lea    rcx,[rip+0x1815]        # 4478 <_IO_stdin_used+0x478>
    2c63:	ba ad 00 00 00       	mov    edx,0xad
    2c68:	48 8d 35 4e 14 00 00 	lea    rsi,[rip+0x144e]        # 40bd <_IO_stdin_used+0xbd>
    2c6f:	48 8d 3d d1 14 00 00 	lea    rdi,[rip+0x14d1]        # 4147 <_IO_stdin_used+0x147>
    2c76:	e8 f5 e3 ff ff       	call   1070 <__assert_fail@plt>
    2c7b:	48 8d 0d ae 17 00 00 	lea    rcx,[rip+0x17ae]        # 4430 <_IO_stdin_used+0x430>
    2c82:	ba 62 00 00 00       	mov    edx,0x62
    2c87:	48 8d 35 2f 14 00 00 	lea    rsi,[rip+0x142f]        # 40bd <_IO_stdin_used+0xbd>
    2c8e:	48 8d 3d 44 14 00 00 	lea    rdi,[rip+0x1444]        # 40d9 <_IO_stdin_used+0xd9>
    2c95:	e8 d6 e3 ff ff       	call   1070 <__assert_fail@plt>
    2c9a:	e8 41 e4 ff ff       	call   10e0 <__stack_chk_fail@plt>
    2c9f:	c5 fb 11 95 70 ff ff 	vmovsd QWORD PTR [rbp-0x90],xmm2
    2ca6:	ff 
    2ca7:	e8 d4 e4 ff ff       	call   1180 <sqrtf@plt>
    2cac:	c5 fb 10 95 70 ff ff 	vmovsd xmm2,QWORD PTR [rbp-0x90]
    2cb3:	ff 
    2cb4:	e9 a1 fe ff ff       	jmp    2b5a <_Z14testSearchTimeP8_IO_FILEPFj8string_tE8TestDatajj+0x35a>
    2cb9:	0f 1f 80 00 00 00 00 	nop    DWORD PTR [rax+0x0]

0000000000002cc0 <_Z4testPFj8string_tE9Filenames8TestDatajj>:
    2cc0:	f3 0f 1e fa          	endbr64
    2cc4:	41 57                	push   r15
    2cc6:	48 8d 35 e5 14 00 00 	lea    rsi,[rip+0x14e5]        # 41b2 <_IO_stdin_used+0x1b2>
    2ccd:	41 56                	push   r14
    2ccf:	45 89 ce             	mov    r14d,r9d
    2cd2:	41 55                	push   r13
    2cd4:	49 89 cd             	mov    r13,rcx
    2cd7:	41 54                	push   r12
    2cd9:	4d 89 c4             	mov    r12,r8
    2cdc:	55                   	push   rbp
    2cdd:	48 89 fd             	mov    rbp,rdi
    2ce0:	48 89 d7             	mov    rdi,rdx
    2ce3:	53                   	push   rbx
    2ce4:	48 83 ec 08          	sub    rsp,0x8
    2ce8:	44 8b 7c 24 40       	mov    r15d,DWORD PTR [rsp+0x40]
    2ced:	e8 fe e3 ff ff       	call   10f0 <fopen@plt>
    2cf2:	45 89 f0             	mov    r8d,r14d
    2cf5:	4c 89 ea             	mov    rdx,r13
    2cf8:	4c 89 e1             	mov    rcx,r12
    2cfb:	45 89 f9             	mov    r9d,r15d
    2cfe:	48 89 ee             	mov    rsi,rbp
    2d01:	48 89 c7             	mov    rdi,rax
    2d04:	48 89 c3             	mov    rbx,rax
    2d07:	e8 f4 fa ff ff       	call   2800 <_Z14testSearchTimeP8_IO_FILEPFj8string_tE8TestDatajj>
    2d0c:	48 83 c4 08          	add    rsp,0x8
    2d10:	48 89 df             	mov    rdi,rbx
    2d13:	5b                   	pop    rbx
    2d14:	5d                   	pop    rbp
    2d15:	41 5c                	pop    r12
    2d17:	41 5d                	pop    r13
    2d19:	41 5e                	pop    r14
    2d1b:	41 5f                	pop    r15
    2d1d:	e9 ae e3 ff ff       	jmp    10d0 <fclose@plt>
    2d22:	66 66 2e 0f 1f 84 00 	data16 cs nop WORD PTR [rax+rax*1+0x0]
    2d29:	00 00 00 00 
    2d2d:	0f 1f 00             	nop    DWORD PTR [rax]

0000000000002d30 <_Z7testAllPKcjS0_j>:
    2d30:	f3 0f 1e fa          	endbr64
    2d34:	41 57                	push   r15
    2d36:	41 56                	push   r14
    2d38:	41 55                	push   r13
    2d3a:	41 54                	push   r12
    2d3c:	55                   	push   rbp
    2d3d:	53                   	push   rbx
    2d3e:	48 83 ec 38          	sub    rsp,0x38
    2d42:	89 4c 24 0c          	mov    DWORD PTR [rsp+0xc],ecx
    2d46:	64 48 8b 04 25 28 00 	mov    rax,QWORD PTR fs:0x28
    2d4d:	00 00 
    2d4f:	48 89 44 24 28       	mov    QWORD PTR [rsp+0x28],rax
    2d54:	31 c0                	xor    eax,eax
    2d56:	48 85 ff             	test   rdi,rdi
    2d59:	0f 84 80 07 00 00    	je     34df <_Z7testAllPKcjS0_j+0x7af>
    2d5f:	48 89 d3             	mov    rbx,rdx
    2d62:	48 85 d2             	test   rdx,rdx
    2d65:	0f 84 55 07 00 00    	je     34c0 <_Z7testAllPKcjS0_j+0x790>
    2d6b:	48 8d 3d 9a 12 00 00 	lea    rdi,[rip+0x129a]        # 400c <_IO_stdin_used+0xc>
    2d72:	41 89 f6             	mov    r14d,esi
    2d75:	48 8d 74 24 20       	lea    rsi,[rsp+0x20]
    2d7a:	48 c7 44 24 20 00 00 	mov    QWORD PTR [rsp+0x20],0x0
    2d81:	00 00 
    2d83:	e8 88 f4 ff ff       	call   2210 <_Z8readFilePKcPm>
    2d88:	48 8b 74 24 20       	mov    rsi,QWORD PTR [rsp+0x20]
    2d8d:	48 89 c7             	mov    rdi,rax
    2d90:	49 89 c7             	mov    r15,rax
    2d93:	48 89 44 24 10       	mov    QWORD PTR [rsp+0x10],rax
    2d98:	e8 83 f5 ff ff       	call   2320 <_Z10countLinesPcm>
    2d9d:	4c 89 ff             	mov    rdi,r15
    2da0:	41 89 c4             	mov    r12d,eax
    2da3:	44 89 e6             	mov    esi,r12d
    2da6:	e8 55 e5 ff ff       	call   1300 <_Z16buildStringArrayPcj>
    2dab:	48 8d 35 10 14 00 00 	lea    rsi,[rip+0x1410]        # 41c2 <_IO_stdin_used+0x1c2>
    2db2:	48 89 df             	mov    rdi,rbx
    2db5:	48 89 c5             	mov    rbp,rax
    2db8:	e8 73 e3 ff ff       	call   1130 <strcmp@plt>
    2dbd:	85 c0                	test   eax,eax
    2dbf:	0f 84 db 00 00 00    	je     2ea0 <_Z7testAllPKcjS0_j+0x170>
    2dc5:	48 8d 35 f2 13 00 00 	lea    rsi,[rip+0x13f2]        # 41be <_IO_stdin_used+0x1be>
    2dcc:	48 89 df             	mov    rdi,rbx
    2dcf:	e8 5c e3 ff ff       	call   1130 <strcmp@plt>
    2dd4:	85 c0                	test   eax,eax
    2dd6:	0f 84 6c 06 00 00    	je     3448 <_Z7testAllPKcjS0_j+0x718>
    2ddc:	48 8d 35 e5 13 00 00 	lea    rsi,[rip+0x13e5]        # 41c8 <_IO_stdin_used+0x1c8>
    2de3:	48 89 df             	mov    rdi,rbx
    2de6:	e8 45 e3 ff ff       	call   1130 <strcmp@plt>
    2deb:	85 c0                	test   eax,eax
    2ded:	0f 84 dd 05 00 00    	je     33d0 <_Z7testAllPKcjS0_j+0x6a0>
    2df3:	48 8d 35 de 13 00 00 	lea    rsi,[rip+0x13de]        # 41d8 <_IO_stdin_used+0x1d8>
    2dfa:	48 89 df             	mov    rdi,rbx
    2dfd:	e8 2e e3 ff ff       	call   1130 <strcmp@plt>
    2e02:	85 c0                	test   eax,eax
    2e04:	0f 84 4e 05 00 00    	je     3358 <_Z7testAllPKcjS0_j+0x628>
    2e0a:	48 8d 35 e8 13 00 00 	lea    rsi,[rip+0x13e8]        # 41f9 <_IO_stdin_used+0x1f9>
    2e11:	48 89 df             	mov    rdi,rbx
    2e14:	e8 17 e3 ff ff       	call   1130 <strcmp@plt>
    2e19:	85 c0                	test   eax,eax
    2e1b:	0f 84 bf 04 00 00    	je     32e0 <_Z7testAllPKcjS0_j+0x5b0>
    2e21:	48 8d 35 d9 13 00 00 	lea    rsi,[rip+0x13d9]        # 4201 <_IO_stdin_used+0x201>
    2e28:	48 89 df             	mov    rdi,rbx
    2e2b:	e8 00 e3 ff ff       	call   1130 <strcmp@plt>
    2e30:	85 c0                	test   eax,eax
    2e32:	0f 84 30 04 00 00    	je     3268 <_Z7testAllPKcjS0_j+0x538>
    2e38:	4c 8d 2d e3 13 00 00 	lea    r13,[rip+0x13e3]        # 4222 <_IO_stdin_used+0x222>
    2e3f:	48 89 df             	mov    rdi,rbx
    2e42:	4c 89 ee             	mov    rsi,r13
    2e45:	e8 e6 e2 ff ff       	call   1130 <strcmp@plt>
    2e4a:	85 c0                	test   eax,eax
    2e4c:	0f 84 9e 03 00 00    	je     31f0 <_Z7testAllPKcjS0_j+0x4c0>
    2e52:	48 8d 35 d9 13 00 00 	lea    rsi,[rip+0x13d9]        # 4232 <_IO_stdin_used+0x232>
    2e59:	48 89 df             	mov    rdi,rbx
    2e5c:	e8 cf e2 ff ff       	call   1130 <strcmp@plt>
    2e61:	85 c0                	test   eax,eax
    2e63:	0f 84 af 00 00 00    	je     2f18 <_Z7testAllPKcjS0_j+0x1e8>
    2e69:	48 8b 7c 24 10       	mov    rdi,QWORD PTR [rsp+0x10]
    2e6e:	e8 8d e2 ff ff       	call   1100 <free@plt>
    2e73:	48 89 ef             	mov    rdi,rbp
    2e76:	e8 85 e2 ff ff       	call   1100 <free@plt>
    2e7b:	48 8b 44 24 28       	mov    rax,QWORD PTR [rsp+0x28]
    2e80:	64 48 2b 04 25 28 00 	sub    rax,QWORD PTR fs:0x28
    2e87:	00 00 
    2e89:	0f 85 2c 06 00 00    	jne    34bb <_Z7testAllPKcjS0_j+0x78b>
    2e8f:	48 83 c4 38          	add    rsp,0x38
    2e93:	5b                   	pop    rbx
    2e94:	5d                   	pop    rbp
    2e95:	41 5c                	pop    r12
    2e97:	41 5d                	pop    r13
    2e99:	41 5e                	pop    r14
    2e9b:	41 5f                	pop    r15
    2e9d:	c3                   	ret
    2e9e:	66 90                	xchg   ax,ax
    2ea0:	48 8d 3d 49 16 00 00 	lea    rdi,[rip+0x1649]        # 44f0 <_IO_stdin_used+0x4f0>
    2ea7:	45 89 e5             	mov    r13d,r12d
    2eaa:	e8 a1 e2 ff ff       	call   1150 <puts@plt>
    2eaf:	48 8d 3d 0c 13 00 00 	lea    rdi,[rip+0x130c]        # 41c2 <_IO_stdin_used+0x1c2>
    2eb6:	e8 95 e2 ff ff       	call   1150 <puts@plt>
    2ebb:	48 8d 3d 4e 16 00 00 	lea    rdi,[rip+0x164e]        # 4510 <_IO_stdin_used+0x510>
    2ec2:	e8 89 e2 ff ff       	call   1150 <puts@plt>
    2ec7:	48 8d 35 e4 12 00 00 	lea    rsi,[rip+0x12e4]        # 41b2 <_IO_stdin_used+0x1b2>
    2ece:	48 8d 3d 5b 16 00 00 	lea    rdi,[rip+0x165b]        # 4530 <_IO_stdin_used+0x530>
    2ed5:	e8 16 e2 ff ff       	call   10f0 <fopen@plt>
    2eda:	44 8b 4c 24 0c       	mov    r9d,DWORD PTR [rsp+0xc]
    2edf:	45 89 f0             	mov    r8d,r14d
    2ee2:	48 89 ea             	mov    rdx,rbp
    2ee5:	48 8d 35 c4 eb ff ff 	lea    rsi,[rip+0xffffffffffffebc4]        # 1ab0 <_Z15crc32HashString8string_t>
    2eec:	49 89 c7             	mov    r15,rax
    2eef:	4c 89 e9             	mov    rcx,r13
    2ef2:	48 89 c7             	mov    rdi,rax
    2ef5:	e8 06 f9 ff ff       	call   2800 <_Z14testSearchTimeP8_IO_FILEPFj8string_tE8TestDatajj>
    2efa:	4c 89 ff             	mov    rdi,r15
    2efd:	e8 ce e1 ff ff       	call   10d0 <fclose@plt>
    2f02:	48 8d 3d 4f 16 00 00 	lea    rdi,[rip+0x164f]        # 4558 <_IO_stdin_used+0x558>
    2f09:	e8 42 e2 ff ff       	call   1150 <puts@plt>
    2f0e:	e9 b2 fe ff ff       	jmp    2dc5 <_Z7testAllPKcjS0_j+0x95>
    2f13:	0f 1f 44 00 00       	nop    DWORD PTR [rax+rax*1+0x0]
    2f18:	4c 8d 3d d1 15 00 00 	lea    r15,[rip+0x15d1]        # 44f0 <_IO_stdin_used+0x4f0>
    2f1f:	4c 89 ff             	mov    rdi,r15
    2f22:	e8 29 e2 ff ff       	call   1150 <puts@plt>
    2f27:	48 8d 3d 94 12 00 00 	lea    rdi,[rip+0x1294]        # 41c2 <_IO_stdin_used+0x1c2>
    2f2e:	e8 1d e2 ff ff       	call   1150 <puts@plt>
    2f33:	48 8d 3d d6 15 00 00 	lea    rdi,[rip+0x15d6]        # 4510 <_IO_stdin_used+0x510>
    2f3a:	e8 11 e2 ff ff       	call   1150 <puts@plt>
    2f3f:	44 89 e0             	mov    eax,r12d
    2f42:	48 8d 35 69 12 00 00 	lea    rsi,[rip+0x1269]        # 41b2 <_IO_stdin_used+0x1b2>
    2f49:	48 8d 3d e0 15 00 00 	lea    rdi,[rip+0x15e0]        # 4530 <_IO_stdin_used+0x530>
    2f50:	48 89 44 24 18       	mov    QWORD PTR [rsp+0x18],rax
    2f55:	e8 96 e1 ff ff       	call   10f0 <fopen@plt>
    2f5a:	44 8b 4c 24 0c       	mov    r9d,DWORD PTR [rsp+0xc]
    2f5f:	45 89 f0             	mov    r8d,r14d
    2f62:	48 89 ea             	mov    rdx,rbp
    2f65:	48 8d 35 44 eb ff ff 	lea    rsi,[rip+0xffffffffffffeb44]        # 1ab0 <_Z15crc32HashString8string_t>
    2f6c:	4c 89 e1             	mov    rcx,r12
    2f6f:	48 89 c3             	mov    rbx,rax
    2f72:	48 89 c7             	mov    rdi,rax
    2f75:	e8 86 f8 ff ff       	call   2800 <_Z14testSearchTimeP8_IO_FILEPFj8string_tE8TestDatajj>
    2f7a:	48 89 df             	mov    rdi,rbx
    2f7d:	48 8d 1d d4 15 00 00 	lea    rbx,[rip+0x15d4]        # 4558 <_IO_stdin_used+0x558>
    2f84:	e8 47 e1 ff ff       	call   10d0 <fclose@plt>
    2f89:	48 89 df             	mov    rdi,rbx
    2f8c:	e8 bf e1 ff ff       	call   1150 <puts@plt>
    2f91:	4c 89 ff             	mov    rdi,r15
    2f94:	e8 b7 e1 ff ff       	call   1150 <puts@plt>
    2f99:	48 8d 3d 1e 12 00 00 	lea    rdi,[rip+0x121e]        # 41be <_IO_stdin_used+0x1be>
    2fa0:	e8 ab e1 ff ff       	call   1150 <puts@plt>
    2fa5:	48 8d 3d 64 15 00 00 	lea    rdi,[rip+0x1564]        # 4510 <_IO_stdin_used+0x510>
    2fac:	e8 9f e1 ff ff       	call   1150 <puts@plt>
    2fb1:	4c 8b 64 24 18       	mov    r12,QWORD PTR [rsp+0x18]
    2fb6:	48 8d 35 f5 11 00 00 	lea    rsi,[rip+0x11f5]        # 41b2 <_IO_stdin_used+0x1b2>
    2fbd:	48 8d 3d b4 15 00 00 	lea    rdi,[rip+0x15b4]        # 4578 <_IO_stdin_used+0x578>
    2fc4:	e8 27 e1 ff ff       	call   10f0 <fopen@plt>
    2fc9:	44 8b 4c 24 0c       	mov    r9d,DWORD PTR [rsp+0xc]
    2fce:	45 89 f0             	mov    r8d,r14d
    2fd1:	48 89 ea             	mov    rdx,rbp
    2fd4:	48 8d 35 e5 ea ff ff 	lea    rsi,[rip+0xffffffffffffeae5]        # 1ac0 <_Z19_mm_crc32HashString8string_t>
    2fdb:	4c 89 e1             	mov    rcx,r12
    2fde:	48 89 c7             	mov    rdi,rax
    2fe1:	48 89 44 24 18       	mov    QWORD PTR [rsp+0x18],rax
    2fe6:	e8 15 f8 ff ff       	call   2800 <_Z14testSearchTimeP8_IO_FILEPFj8string_tE8TestDatajj>
    2feb:	48 8b 7c 24 18       	mov    rdi,QWORD PTR [rsp+0x18]
    2ff0:	e8 db e0 ff ff       	call   10d0 <fclose@plt>
    2ff5:	48 89 df             	mov    rdi,rbx
    2ff8:	e8 53 e1 ff ff       	call   1150 <puts@plt>
    2ffd:	4c 89 ff             	mov    rdi,r15
    3000:	e8 4b e1 ff ff       	call   1150 <puts@plt>
    3005:	4c 89 ef             	mov    rdi,r13
    3008:	e8 43 e1 ff ff       	call   1150 <puts@plt>
    300d:	48 8d 3d fc 14 00 00 	lea    rdi,[rip+0x14fc]        # 4510 <_IO_stdin_used+0x510>
    3014:	e8 37 e1 ff ff       	call   1150 <puts@plt>
    3019:	48 8d 35 92 11 00 00 	lea    rsi,[rip+0x1192]        # 41b2 <_IO_stdin_used+0x1b2>
    3020:	48 8d 3d d1 15 00 00 	lea    rdi,[rip+0x15d1]        # 45f8 <_IO_stdin_used+0x5f8>
    3027:	e8 c4 e0 ff ff       	call   10f0 <fopen@plt>
    302c:	44 8b 4c 24 0c       	mov    r9d,DWORD PTR [rsp+0xc]
    3031:	45 89 f0             	mov    r8d,r14d
    3034:	48 89 ea             	mov    rdx,rbp
    3037:	48 8d 35 92 ea ff ff 	lea    rsi,[rip+0xffffffffffffea92]        # 1ad0 <_Z25_mm_crc32UnrollHashString8string_t>
    303e:	4c 89 e1             	mov    rcx,r12
    3041:	49 89 c5             	mov    r13,rax
    3044:	48 89 c7             	mov    rdi,rax
    3047:	e8 b4 f7 ff ff       	call   2800 <_Z14testSearchTimeP8_IO_FILEPFj8string_tE8TestDatajj>
    304c:	4c 89 ef             	mov    rdi,r13
    304f:	e8 7c e0 ff ff       	call   10d0 <fclose@plt>
    3054:	48 89 df             	mov    rdi,rbx
    3057:	e8 f4 e0 ff ff       	call   1150 <puts@plt>
    305c:	4c 89 ff             	mov    rdi,r15
    305f:	e8 ec e0 ff ff       	call   1150 <puts@plt>
    3064:	48 8d 3d 65 11 00 00 	lea    rdi,[rip+0x1165]        # 41d0 <_IO_stdin_used+0x1d0>
    306b:	e8 e0 e0 ff ff       	call   1150 <puts@plt>
    3070:	48 8d 3d 99 14 00 00 	lea    rdi,[rip+0x1499]        # 4510 <_IO_stdin_used+0x510>
    3077:	e8 d4 e0 ff ff       	call   1150 <puts@plt>
    307c:	48 8d 35 2f 11 00 00 	lea    rsi,[rip+0x112f]        # 41b2 <_IO_stdin_used+0x1b2>
    3083:	48 8d 3d 1e 15 00 00 	lea    rdi,[rip+0x151e]        # 45a8 <_IO_stdin_used+0x5a8>
    308a:	e8 61 e0 ff ff       	call   10f0 <fopen@plt>
    308f:	44 8b 4c 24 0c       	mov    r9d,DWORD PTR [rsp+0xc]
    3094:	45 89 f0             	mov    r8d,r14d
    3097:	48 89 ea             	mov    rdx,rbp
    309a:	48 8d 35 8f ea ff ff 	lea    rsi,[rip+0xffffffffffffea8f]        # 1b30 <_Z17murmur2HashString8string_t>
    30a1:	4c 89 e1             	mov    rcx,r12
    30a4:	49 89 c5             	mov    r13,rax
    30a7:	48 89 c7             	mov    rdi,rax
    30aa:	e8 51 f7 ff ff       	call   2800 <_Z14testSearchTimeP8_IO_FILEPFj8string_tE8TestDatajj>
    30af:	4c 89 ef             	mov    rdi,r13
    30b2:	e8 19 e0 ff ff       	call   10d0 <fclose@plt>
    30b7:	48 89 df             	mov    rdi,rbx
    30ba:	e8 91 e0 ff ff       	call   1150 <puts@plt>
    30bf:	4c 89 ff             	mov    rdi,r15
    30c2:	e8 89 e0 ff ff       	call   1150 <puts@plt>
    30c7:	48 8d 3d 0a 11 00 00 	lea    rdi,[rip+0x110a]        # 41d8 <_IO_stdin_used+0x1d8>
    30ce:	e8 7d e0 ff ff       	call   1150 <puts@plt>
    30d3:	48 8d 3d 36 14 00 00 	lea    rdi,[rip+0x1436]        # 4510 <_IO_stdin_used+0x510>
    30da:	e8 71 e0 ff ff       	call   1150 <puts@plt>
    30df:	48 8d 35 cc 10 00 00 	lea    rsi,[rip+0x10cc]        # 41b2 <_IO_stdin_used+0x1b2>
    30e6:	48 8d 3d ef 10 00 00 	lea    rdi,[rip+0x10ef]        # 41dc <_IO_stdin_used+0x1dc>
    30ed:	e8 fe df ff ff       	call   10f0 <fopen@plt>
    30f2:	44 8b 4c 24 0c       	mov    r9d,DWORD PTR [rsp+0xc]
    30f7:	45 89 f0             	mov    r8d,r14d
    30fa:	48 89 ea             	mov    rdx,rbp
    30fd:	48 8d 35 3c ea ff ff 	lea    rsi,[rip+0xffffffffffffea3c]        # 1b40 <_Z13sumHashString8string_t>
    3104:	4c 89 e1             	mov    rcx,r12
    3107:	49 89 c5             	mov    r13,rax
    310a:	48 89 c7             	mov    rdi,rax
    310d:	e8 ee f6 ff ff       	call   2800 <_Z14testSearchTimeP8_IO_FILEPFj8string_tE8TestDatajj>
    3112:	4c 89 ef             	mov    rdi,r13
    3115:	e8 b6 df ff ff       	call   10d0 <fclose@plt>
    311a:	48 89 df             	mov    rdi,rbx
    311d:	e8 2e e0 ff ff       	call   1150 <puts@plt>
    3122:	4c 89 ff             	mov    rdi,r15
    3125:	e8 26 e0 ff ff       	call   1150 <puts@plt>
    312a:	48 8d 3d c8 10 00 00 	lea    rdi,[rip+0x10c8]        # 41f9 <_IO_stdin_used+0x1f9>
    3131:	e8 1a e0 ff ff       	call   1150 <puts@plt>
    3136:	48 8d 3d d3 13 00 00 	lea    rdi,[rip+0x13d3]        # 4510 <_IO_stdin_used+0x510>
    313d:	e8 0e e0 ff ff       	call   1150 <puts@plt>
    3142:	48 8d 35 69 10 00 00 	lea    rsi,[rip+0x1069]        # 41b2 <_IO_stdin_used+0x1b2>
    3149:	48 8d 3d 80 14 00 00 	lea    rdi,[rip+0x1480]        # 45d0 <_IO_stdin_used+0x5d0>
    3150:	e8 9b df ff ff       	call   10f0 <fopen@plt>
    3155:	44 8b 4c 24 0c       	mov    r9d,DWORD PTR [rsp+0xc]
    315a:	45 89 f0             	mov    r8d,r14d
    315d:	48 89 ea             	mov    rdx,rbp
    3160:	48 8d 35 e9 e9 ff ff 	lea    rsi,[rip+0xffffffffffffe9e9]        # 1b50 <_Z17adler32HashString8string_t>
    3167:	4c 89 e1             	mov    rcx,r12
    316a:	49 89 c5             	mov    r13,rax
    316d:	48 89 c7             	mov    rdi,rax
    3170:	e8 8b f6 ff ff       	call   2800 <_Z14testSearchTimeP8_IO_FILEPFj8string_tE8TestDatajj>
    3175:	4c 89 ef             	mov    rdi,r13
    3178:	e8 53 df ff ff       	call   10d0 <fclose@plt>
    317d:	48 89 df             	mov    rdi,rbx
    3180:	e8 cb df ff ff       	call   1150 <puts@plt>
    3185:	4c 89 ff             	mov    rdi,r15
    3188:	e8 c3 df ff ff       	call   1150 <puts@plt>
    318d:	48 8d 3d 6d 10 00 00 	lea    rdi,[rip+0x106d]        # 4201 <_IO_stdin_used+0x201>
    3194:	e8 b7 df ff ff       	call   1150 <puts@plt>
    3199:	48 8d 3d 70 13 00 00 	lea    rdi,[rip+0x1370]        # 4510 <_IO_stdin_used+0x510>
    31a0:	e8 ab df ff ff       	call   1150 <puts@plt>
    31a5:	48 8d 35 06 10 00 00 	lea    rsi,[rip+0x1006]        # 41b2 <_IO_stdin_used+0x1b2>
    31ac:	48 8d 3d 52 10 00 00 	lea    rdi,[rip+0x1052]        # 4205 <_IO_stdin_used+0x205>
    31b3:	e8 38 df ff ff       	call   10f0 <fopen@plt>
    31b8:	44 8b 4c 24 0c       	mov    r9d,DWORD PTR [rsp+0xc]
    31bd:	45 89 f0             	mov    r8d,r14d
    31c0:	48 89 ea             	mov    rdx,rbp
    31c3:	48 8d 35 96 eb ff ff 	lea    rsi,[rip+0xffffffffffffeb96]        # 1d60 <_Z13elfHashString8string_t>
    31ca:	49 89 c5             	mov    r13,rax
    31cd:	4c 89 e1             	mov    rcx,r12
    31d0:	48 89 c7             	mov    rdi,rax
    31d3:	e8 28 f6 ff ff       	call   2800 <_Z14testSearchTimeP8_IO_FILEPFj8string_tE8TestDatajj>
    31d8:	4c 89 ef             	mov    rdi,r13
    31db:	e8 f0 de ff ff       	call   10d0 <fclose@plt>
    31e0:	48 89 df             	mov    rdi,rbx
    31e3:	e8 68 df ff ff       	call   1150 <puts@plt>
    31e8:	e9 7c fc ff ff       	jmp    2e69 <_Z7testAllPKcjS0_j+0x139>
    31ed:	0f 1f 00             	nop    DWORD PTR [rax]
    31f0:	48 8d 3d f9 12 00 00 	lea    rdi,[rip+0x12f9]        # 44f0 <_IO_stdin_used+0x4f0>
    31f7:	45 89 e7             	mov    r15d,r12d
    31fa:	e8 51 df ff ff       	call   1150 <puts@plt>
    31ff:	4c 89 ef             	mov    rdi,r13
    3202:	e8 49 df ff ff       	call   1150 <puts@plt>
    3207:	48 8d 3d 02 13 00 00 	lea    rdi,[rip+0x1302]        # 4510 <_IO_stdin_used+0x510>
    320e:	e8 3d df ff ff       	call   1150 <puts@plt>
    3213:	48 8d 35 98 0f 00 00 	lea    rsi,[rip+0xf98]        # 41b2 <_IO_stdin_used+0x1b2>
    321a:	48 8d 3d d7 13 00 00 	lea    rdi,[rip+0x13d7]        # 45f8 <_IO_stdin_used+0x5f8>
    3221:	e8 ca de ff ff       	call   10f0 <fopen@plt>
    3226:	44 8b 4c 24 0c       	mov    r9d,DWORD PTR [rsp+0xc]
    322b:	45 89 f0             	mov    r8d,r14d
    322e:	48 89 ea             	mov    rdx,rbp
    3231:	48 8d 35 98 e8 ff ff 	lea    rsi,[rip+0xffffffffffffe898]        # 1ad0 <_Z25_mm_crc32UnrollHashString8string_t>
    3238:	48 89 c7             	mov    rdi,rax
    323b:	4c 89 f9             	mov    rcx,r15
    323e:	48 89 44 24 18       	mov    QWORD PTR [rsp+0x18],rax
    3243:	e8 b8 f5 ff ff       	call   2800 <_Z14testSearchTimeP8_IO_FILEPFj8string_tE8TestDatajj>
    3248:	48 8b 7c 24 18       	mov    rdi,QWORD PTR [rsp+0x18]
    324d:	e8 7e de ff ff       	call   10d0 <fclose@plt>
    3252:	48 8d 3d ff 12 00 00 	lea    rdi,[rip+0x12ff]        # 4558 <_IO_stdin_used+0x558>
    3259:	e8 f2 de ff ff       	call   1150 <puts@plt>
    325e:	e9 ef fb ff ff       	jmp    2e52 <_Z7testAllPKcjS0_j+0x122>
    3263:	0f 1f 44 00 00       	nop    DWORD PTR [rax+rax*1+0x0]
    3268:	48 8d 3d 81 12 00 00 	lea    rdi,[rip+0x1281]        # 44f0 <_IO_stdin_used+0x4f0>
    326f:	45 89 e5             	mov    r13d,r12d
    3272:	e8 d9 de ff ff       	call   1150 <puts@plt>
    3277:	48 8d 3d 83 0f 00 00 	lea    rdi,[rip+0xf83]        # 4201 <_IO_stdin_used+0x201>
    327e:	e8 cd de ff ff       	call   1150 <puts@plt>
    3283:	48 8d 3d 86 12 00 00 	lea    rdi,[rip+0x1286]        # 4510 <_IO_stdin_used+0x510>
    328a:	e8 c1 de ff ff       	call   1150 <puts@plt>
    328f:	48 8d 35 1c 0f 00 00 	lea    rsi,[rip+0xf1c]        # 41b2 <_IO_stdin_used+0x1b2>
    3296:	48 8d 3d 68 0f 00 00 	lea    rdi,[rip+0xf68]        # 4205 <_IO_stdin_used+0x205>
    329d:	e8 4e de ff ff       	call   10f0 <fopen@plt>
    32a2:	44 8b 4c 24 0c       	mov    r9d,DWORD PTR [rsp+0xc]
    32a7:	45 89 f0             	mov    r8d,r14d
    32aa:	48 89 ea             	mov    rdx,rbp
    32ad:	48 8d 35 ac ea ff ff 	lea    rsi,[rip+0xffffffffffffeaac]        # 1d60 <_Z13elfHashString8string_t>
    32b4:	49 89 c7             	mov    r15,rax
    32b7:	4c 89 e9             	mov    rcx,r13
    32ba:	48 89 c7             	mov    rdi,rax
    32bd:	e8 3e f5 ff ff       	call   2800 <_Z14testSearchTimeP8_IO_FILEPFj8string_tE8TestDatajj>
    32c2:	4c 89 ff             	mov    rdi,r15
    32c5:	e8 06 de ff ff       	call   10d0 <fclose@plt>
    32ca:	48 8d 3d 87 12 00 00 	lea    rdi,[rip+0x1287]        # 4558 <_IO_stdin_used+0x558>
    32d1:	e8 7a de ff ff       	call   1150 <puts@plt>
    32d6:	e9 5d fb ff ff       	jmp    2e38 <_Z7testAllPKcjS0_j+0x108>
    32db:	0f 1f 44 00 00       	nop    DWORD PTR [rax+rax*1+0x0]
    32e0:	48 8d 3d 09 12 00 00 	lea    rdi,[rip+0x1209]        # 44f0 <_IO_stdin_used+0x4f0>
    32e7:	45 89 e5             	mov    r13d,r12d
    32ea:	e8 61 de ff ff       	call   1150 <puts@plt>
    32ef:	48 8d 3d 03 0f 00 00 	lea    rdi,[rip+0xf03]        # 41f9 <_IO_stdin_used+0x1f9>
    32f6:	e8 55 de ff ff       	call   1150 <puts@plt>
    32fb:	48 8d 3d 0e 12 00 00 	lea    rdi,[rip+0x120e]        # 4510 <_IO_stdin_used+0x510>
    3302:	e8 49 de ff ff       	call   1150 <puts@plt>
    3307:	48 8d 35 a4 0e 00 00 	lea    rsi,[rip+0xea4]        # 41b2 <_IO_stdin_used+0x1b2>
    330e:	48 8d 3d bb 12 00 00 	lea    rdi,[rip+0x12bb]        # 45d0 <_IO_stdin_used+0x5d0>
    3315:	e8 d6 dd ff ff       	call   10f0 <fopen@plt>
    331a:	44 8b 4c 24 0c       	mov    r9d,DWORD PTR [rsp+0xc]
    331f:	45 89 f0             	mov    r8d,r14d
    3322:	48 89 ea             	mov    rdx,rbp
    3325:	48 8d 35 24 e8 ff ff 	lea    rsi,[rip+0xffffffffffffe824]        # 1b50 <_Z17adler32HashString8string_t>
    332c:	49 89 c7             	mov    r15,rax
    332f:	4c 89 e9             	mov    rcx,r13
    3332:	48 89 c7             	mov    rdi,rax
    3335:	e8 c6 f4 ff ff       	call   2800 <_Z14testSearchTimeP8_IO_FILEPFj8string_tE8TestDatajj>
    333a:	4c 89 ff             	mov    rdi,r15
    333d:	e8 8e dd ff ff       	call   10d0 <fclose@plt>
    3342:	48 8d 3d 0f 12 00 00 	lea    rdi,[rip+0x120f]        # 4558 <_IO_stdin_used+0x558>
    3349:	e8 02 de ff ff       	call   1150 <puts@plt>
    334e:	e9 ce fa ff ff       	jmp    2e21 <_Z7testAllPKcjS0_j+0xf1>
    3353:	0f 1f 44 00 00       	nop    DWORD PTR [rax+rax*1+0x0]
    3358:	48 8d 3d 91 11 00 00 	lea    rdi,[rip+0x1191]        # 44f0 <_IO_stdin_used+0x4f0>
    335f:	45 89 e5             	mov    r13d,r12d
    3362:	e8 e9 dd ff ff       	call   1150 <puts@plt>
    3367:	48 8d 3d 6a 0e 00 00 	lea    rdi,[rip+0xe6a]        # 41d8 <_IO_stdin_used+0x1d8>
    336e:	e8 dd dd ff ff       	call   1150 <puts@plt>
    3373:	48 8d 3d 96 11 00 00 	lea    rdi,[rip+0x1196]        # 4510 <_IO_stdin_used+0x510>
    337a:	e8 d1 dd ff ff       	call   1150 <puts@plt>
    337f:	48 8d 35 2c 0e 00 00 	lea    rsi,[rip+0xe2c]        # 41b2 <_IO_stdin_used+0x1b2>
    3386:	48 8d 3d 4f 0e 00 00 	lea    rdi,[rip+0xe4f]        # 41dc <_IO_stdin_used+0x1dc>
    338d:	e8 5e dd ff ff       	call   10f0 <fopen@plt>
    3392:	44 8b 4c 24 0c       	mov    r9d,DWORD PTR [rsp+0xc]
    3397:	45 89 f0             	mov    r8d,r14d
    339a:	48 89 ea             	mov    rdx,rbp
    339d:	48 8d 35 9c e7 ff ff 	lea    rsi,[rip+0xffffffffffffe79c]        # 1b40 <_Z13sumHashString8string_t>
    33a4:	49 89 c7             	mov    r15,rax
    33a7:	4c 89 e9             	mov    rcx,r13
    33aa:	48 89 c7             	mov    rdi,rax
    33ad:	e8 4e f4 ff ff       	call   2800 <_Z14testSearchTimeP8_IO_FILEPFj8string_tE8TestDatajj>
    33b2:	4c 89 ff             	mov    rdi,r15
    33b5:	e8 16 dd ff ff       	call   10d0 <fclose@plt>
    33ba:	48 8d 3d 97 11 00 00 	lea    rdi,[rip+0x1197]        # 4558 <_IO_stdin_used+0x558>
    33c1:	e8 8a dd ff ff       	call   1150 <puts@plt>
    33c6:	e9 3f fa ff ff       	jmp    2e0a <_Z7testAllPKcjS0_j+0xda>
    33cb:	0f 1f 44 00 00       	nop    DWORD PTR [rax+rax*1+0x0]
    33d0:	48 8d 3d 19 11 00 00 	lea    rdi,[rip+0x1119]        # 44f0 <_IO_stdin_used+0x4f0>
    33d7:	45 89 e5             	mov    r13d,r12d
    33da:	e8 71 dd ff ff       	call   1150 <puts@plt>
    33df:	48 8d 3d ea 0d 00 00 	lea    rdi,[rip+0xdea]        # 41d0 <_IO_stdin_used+0x1d0>
    33e6:	e8 65 dd ff ff       	call   1150 <puts@plt>
    33eb:	48 8d 3d 1e 11 00 00 	lea    rdi,[rip+0x111e]        # 4510 <_IO_stdin_used+0x510>
    33f2:	e8 59 dd ff ff       	call   1150 <puts@plt>
    33f7:	48 8d 35 b4 0d 00 00 	lea    rsi,[rip+0xdb4]        # 41b2 <_IO_stdin_used+0x1b2>
    33fe:	48 8d 3d a3 11 00 00 	lea    rdi,[rip+0x11a3]        # 45a8 <_IO_stdin_used+0x5a8>
    3405:	e8 e6 dc ff ff       	call   10f0 <fopen@plt>
    340a:	44 8b 4c 24 0c       	mov    r9d,DWORD PTR [rsp+0xc]
    340f:	45 89 f0             	mov    r8d,r14d
    3412:	48 89 ea             	mov    rdx,rbp
    3415:	48 8d 35 14 e7 ff ff 	lea    rsi,[rip+0xffffffffffffe714]        # 1b30 <_Z17murmur2HashString8string_t>
    341c:	49 89 c7             	mov    r15,rax
    341f:	4c 89 e9             	mov    rcx,r13
    3422:	48 89 c7             	mov    rdi,rax
    3425:	e8 d6 f3 ff ff       	call   2800 <_Z14testSearchTimeP8_IO_FILEPFj8string_tE8TestDatajj>
    342a:	4c 89 ff             	mov    rdi,r15
    342d:	e8 9e dc ff ff       	call   10d0 <fclose@plt>
    3432:	48 8d 3d 1f 11 00 00 	lea    rdi,[rip+0x111f]        # 4558 <_IO_stdin_used+0x558>
    3439:	e8 12 dd ff ff       	call   1150 <puts@plt>
    343e:	e9 b0 f9 ff ff       	jmp    2df3 <_Z7testAllPKcjS0_j+0xc3>
    3443:	0f 1f 44 00 00       	nop    DWORD PTR [rax+rax*1+0x0]
    3448:	48 8d 3d a1 10 00 00 	lea    rdi,[rip+0x10a1]        # 44f0 <_IO_stdin_used+0x4f0>
    344f:	45 89 e5             	mov    r13d,r12d
    3452:	e8 f9 dc ff ff       	call   1150 <puts@plt>
    3457:	48 8d 3d 60 0d 00 00 	lea    rdi,[rip+0xd60]        # 41be <_IO_stdin_used+0x1be>
    345e:	e8 ed dc ff ff       	call   1150 <puts@plt>
    3463:	48 8d 3d a6 10 00 00 	lea    rdi,[rip+0x10a6]        # 4510 <_IO_stdin_used+0x510>
    346a:	e8 e1 dc ff ff       	call   1150 <puts@plt>
    346f:	48 8d 35 3c 0d 00 00 	lea    rsi,[rip+0xd3c]        # 41b2 <_IO_stdin_used+0x1b2>
    3476:	48 8d 3d fb 10 00 00 	lea    rdi,[rip+0x10fb]        # 4578 <_IO_stdin_used+0x578>
    347d:	e8 6e dc ff ff       	call   10f0 <fopen@plt>
    3482:	44 8b 4c 24 0c       	mov    r9d,DWORD PTR [rsp+0xc]
    3487:	45 89 f0             	mov    r8d,r14d
    348a:	48 89 ea             	mov    rdx,rbp
    348d:	48 8d 35 2c e6 ff ff 	lea    rsi,[rip+0xffffffffffffe62c]        # 1ac0 <_Z19_mm_crc32HashString8string_t>
    3494:	49 89 c7             	mov    r15,rax
    3497:	4c 89 e9             	mov    rcx,r13
    349a:	48 89 c7             	mov    rdi,rax
    349d:	e8 5e f3 ff ff       	call   2800 <_Z14testSearchTimeP8_IO_FILEPFj8string_tE8TestDatajj>
    34a2:	4c 89 ff             	mov    rdi,r15
    34a5:	e8 26 dc ff ff       	call   10d0 <fclose@plt>
    34aa:	48 8d 3d a7 10 00 00 	lea    rdi,[rip+0x10a7]        # 4558 <_IO_stdin_used+0x558>
    34b1:	e8 9a dc ff ff       	call   1150 <puts@plt>
    34b6:	e9 21 f9 ff ff       	jmp    2ddc <_Z7testAllPKcjS0_j+0xac>
    34bb:	e8 20 dc ff ff       	call   10e0 <__stack_chk_fail@plt>
    34c0:	48 8d 0d e9 0f 00 00 	lea    rcx,[rip+0xfe9]        # 44b0 <_IO_stdin_used+0x4b0>
    34c7:	ba 13 00 00 00       	mov    edx,0x13
    34cc:	48 8d 35 ea 0b 00 00 	lea    rsi,[rip+0xbea]        # 40bd <_IO_stdin_used+0xbd>
    34d3:	48 8d 3d da 0c 00 00 	lea    rdi,[rip+0xcda]        # 41b4 <_IO_stdin_used+0x1b4>
    34da:	e8 91 db ff ff       	call   1070 <__assert_fail@plt>
    34df:	48 8d 0d ca 0f 00 00 	lea    rcx,[rip+0xfca]        # 44b0 <_IO_stdin_used+0x4b0>
    34e6:	ba 12 00 00 00       	mov    edx,0x12
    34eb:	48 8d 35 cb 0b 00 00 	lea    rsi,[rip+0xbcb]        # 40bd <_IO_stdin_used+0xbd>
    34f2:	48 8d 3d bb 0b 00 00 	lea    rdi,[rip+0xbbb]        # 40b4 <_IO_stdin_used+0xb4>
    34f9:	e8 72 db ff ff       	call   1070 <__assert_fail@plt>
    34fe:	66 90                	xchg   ax,ax

0000000000003500 <_Z21standartDeviationTimePdjd>:
    3500:	f3 0f 1e fa          	endbr64
    3504:	4c 8d 54 24 08       	lea    r10,[rsp+0x8]
    3509:	48 83 e4 e0          	and    rsp,0xffffffffffffffe0
    350d:	41 ff 72 f8          	push   QWORD PTR [r10-0x8]
    3511:	55                   	push   rbp
    3512:	48 89 e5             	mov    rbp,rsp
    3515:	41 52                	push   r10
    3517:	48 83 ec 08          	sub    rsp,0x8
    351b:	48 85 ff             	test   rdi,rdi
    351e:	0f 84 18 01 00 00    	je     363c <_Z21standartDeviationTimePdjd+0x13c>
    3524:	89 f1                	mov    ecx,esi
    3526:	85 c9                	test   ecx,ecx
    3528:	0f 84 f2 00 00 00    	je     3620 <_Z21standartDeviationTimePdjd+0x120>
    352e:	8d 41 ff             	lea    eax,[rcx-0x1]
    3531:	48 89 fa             	mov    rdx,rdi
    3534:	c5 fb 10 d8          	vmovsd xmm3,xmm0,xmm0
    3538:	83 f8 02             	cmp    eax,0x2
    353b:	0f 86 e9 00 00 00    	jbe    362a <_Z21standartDeviationTimePdjd+0x12a>
    3541:	89 ce                	mov    esi,ecx
    3543:	c4 e2 7d 19 e8       	vbroadcastsd ymm5,xmm0
    3548:	c5 f9 57 c0          	vxorpd xmm0,xmm0,xmm0
    354c:	48 89 f8             	mov    rax,rdi
    354f:	c1 ee 02             	shr    esi,0x2
    3552:	48 c1 e6 05          	shl    rsi,0x5
    3556:	48 01 fe             	add    rsi,rdi
    3559:	0f 1f 80 00 00 00 00 	nop    DWORD PTR [rax+0x0]
    3560:	c5 fd 10 30          	vmovupd ymm6,YMMWORD PTR [rax]
    3564:	48 83 c0 20          	add    rax,0x20
    3568:	c5 cd 5c cd          	vsubpd ymm1,ymm6,ymm5
    356c:	c5 f5 59 c9          	vmulpd ymm1,ymm1,ymm1
    3570:	c5 fb 58 c1          	vaddsd xmm0,xmm0,xmm1
    3574:	c5 f1 15 d1          	vunpckhpd xmm2,xmm1,xmm1
    3578:	c4 e3 7d 19 c9 01    	vextractf128 xmm1,ymm1,0x1
    357e:	c5 fb 58 c2          	vaddsd xmm0,xmm0,xmm2
    3582:	c5 fb 58 c1          	vaddsd xmm0,xmm0,xmm1
    3586:	c5 f1 15 c9          	vunpckhpd xmm1,xmm1,xmm1
    358a:	c5 fb 58 c1          	vaddsd xmm0,xmm0,xmm1
    358e:	48 39 f0             	cmp    rax,rsi
    3591:	75 cd                	jne    3560 <_Z21standartDeviationTimePdjd+0x60>
    3593:	89 c8                	mov    eax,ecx
    3595:	83 e0 fc             	and    eax,0xfffffffc
    3598:	f6 c1 03             	test   cl,0x3
    359b:	74 7b                	je     3618 <_Z21standartDeviationTimePdjd+0x118>
    359d:	c5 f8 77             	vzeroupper
    35a0:	89 ce                	mov    esi,ecx
    35a2:	29 c6                	sub    esi,eax
    35a4:	83 fe 01             	cmp    esi,0x1
    35a7:	74 2a                	je     35d3 <_Z21standartDeviationTimePdjd+0xd3>
    35a9:	89 c7                	mov    edi,eax
    35ab:	c5 fb 12 d3          	vmovddup xmm2,xmm3
    35af:	c5 f9 10 0c fa       	vmovupd xmm1,XMMWORD PTR [rdx+rdi*8]
    35b4:	c5 f1 5c ca          	vsubpd xmm1,xmm1,xmm2
    35b8:	c5 f1 59 c9          	vmulpd xmm1,xmm1,xmm1
    35bc:	c5 fb 58 c1          	vaddsd xmm0,xmm0,xmm1
    35c0:	c5 f1 15 c9          	vunpckhpd xmm1,xmm1,xmm1
    35c4:	c5 f3 58 c0          	vaddsd xmm0,xmm1,xmm0
    35c8:	40 f6 c6 01          	test   sil,0x1
    35cc:	74 16                	je     35e4 <_Z21standartDeviationTimePdjd+0xe4>
    35ce:	83 e6 fe             	and    esi,0xfffffffe
    35d1:	01 f0                	add    eax,esi
    35d3:	c5 fb 10 0c c2       	vmovsd xmm1,QWORD PTR [rdx+rax*8]
    35d8:	c5 f3 5c cb          	vsubsd xmm1,xmm1,xmm3
    35dc:	c5 f3 59 c9          	vmulsd xmm1,xmm1,xmm1
    35e0:	c5 fb 58 c1          	vaddsd xmm0,xmm0,xmm1
    35e4:	c5 f0 57 c9          	vxorps xmm1,xmm1,xmm1
    35e8:	c5 fb 5a c0          	vcvtsd2ss xmm0,xmm0,xmm0
    35ec:	c4 e1 f2 2a c9       	vcvtsi2ss xmm1,xmm1,rcx
    35f1:	c5 fa 5e c1          	vdivss xmm0,xmm0,xmm1
    35f5:	c5 f0 57 c9          	vxorps xmm1,xmm1,xmm1
    35f9:	c5 f8 2e c8          	vucomiss xmm1,xmm0
    35fd:	77 36                	ja     3635 <_Z21standartDeviationTimePdjd+0x135>
    35ff:	c5 fa 51 c0          	vsqrtss xmm0,xmm0,xmm0
    3603:	4c 8b 55 f8          	mov    r10,QWORD PTR [rbp-0x8]
    3607:	c5 fa 5a c0          	vcvtss2sd xmm0,xmm0,xmm0
    360b:	c9                   	leave
    360c:	49 8d 62 f8          	lea    rsp,[r10-0x8]
    3610:	c3                   	ret
    3611:	0f 1f 80 00 00 00 00 	nop    DWORD PTR [rax+0x0]
    3618:	c5 f8 77             	vzeroupper
    361b:	eb c7                	jmp    35e4 <_Z21standartDeviationTimePdjd+0xe4>
    361d:	0f 1f 00             	nop    DWORD PTR [rax]
    3620:	c5 f8 57 c0          	vxorps xmm0,xmm0,xmm0
    3624:	c5 fa 5e c0          	vdivss xmm0,xmm0,xmm0
    3628:	eb d5                	jmp    35ff <_Z21standartDeviationTimePdjd+0xff>
    362a:	31 c0                	xor    eax,eax
    362c:	c5 f9 57 c0          	vxorpd xmm0,xmm0,xmm0
    3630:	e9 6b ff ff ff       	jmp    35a0 <_Z21standartDeviationTimePdjd+0xa0>
    3635:	e8 46 db ff ff       	call   1180 <sqrtf@plt>
    363a:	eb c7                	jmp    3603 <_Z21standartDeviationTimePdjd+0x103>
    363c:	48 8d 0d 35 0e 00 00 	lea    rcx,[rip+0xe35]        # 4478 <_IO_stdin_used+0x478>
    3643:	ba ad 00 00 00       	mov    edx,0xad
    3648:	48 8d 35 6e 0a 00 00 	lea    rsi,[rip+0xa6e]        # 40bd <_IO_stdin_used+0xbd>
    364f:	48 8d 3d f1 0a 00 00 	lea    rdi,[rip+0xaf1]        # 4147 <_IO_stdin_used+0x147>
    3656:	e8 15 da ff ff       	call   1070 <__assert_fail@plt>
    365b:	0f 1f 44 00 00       	nop    DWORD PTR [rax+rax*1+0x0]

0000000000003660 <_Z27standartDeviationCollisionsP7HashMapf>:
    3660:	f3 0f 1e fa          	endbr64
    3664:	41 55                	push   r13
    3666:	4c 8d 6c 24 10       	lea    r13,[rsp+0x10]
    366b:	48 83 e4 e0          	and    rsp,0xffffffffffffffe0
    366f:	41 ff 75 f8          	push   QWORD PTR [r13-0x8]
    3673:	55                   	push   rbp
    3674:	48 89 e5             	mov    rbp,rsp
    3677:	41 55                	push   r13
    3679:	48 83 ec 28          	sub    rsp,0x28
    367d:	48 85 ff             	test   rdi,rdi
    3680:	0f 84 d7 02 00 00    	je     395d <_Z27standartDeviationCollisionsP7HashMapf+0x2fd>
    3686:	8b 77 08             	mov    esi,DWORD PTR [rdi+0x8]
    3689:	85 f6                	test   esi,esi
    368b:	0f 84 87 02 00 00    	je     3918 <_Z27standartDeviationCollisionsP7HashMapf+0x2b8>
    3691:	8d 46 ff             	lea    eax,[rsi-0x1]
    3694:	48 8b 3f             	mov    rdi,QWORD PTR [rdi]
    3697:	c5 f8 28 e0          	vmovaps xmm4,xmm0
    369b:	c5 e0 57 db          	vxorps xmm3,xmm3,xmm3
    369f:	83 f8 06             	cmp    eax,0x6
    36a2:	0f 86 95 02 00 00    	jbe    393d <_Z27standartDeviationCollisionsP7HashMapf+0x2dd>
    36a8:	48 8d 47 10          	lea    rax,[rdi+0x10]
    36ac:	c4 e2 7d 18 f0       	vbroadcastss ymm6,xmm0
    36b1:	c4 41 38 57 c0       	vxorps xmm8,xmm8,xmm8
    36b6:	89 f2                	mov    edx,esi
    36b8:	c4 e2 7d 18 2d 47 09 	vbroadcastss ymm5,DWORD PTR [rip+0x947]        # 4008 <_IO_stdin_used+0x8>
    36bf:	00 00 
    36c1:	c1 ea 03             	shr    edx,0x3
    36c4:	48 b9 00 00 00 00 ff 	movabs rcx,0xffffffff00000000
    36cb:	ff ff ff 
    36ce:	4c 8d 04 52          	lea    r8,[rdx+rdx*2]
    36d2:	ba ff ff 00 00       	mov    edx,0xffff
    36d7:	49 c1 e0 06          	shl    r8,0x6
    36db:	c5 f9 6e d2          	vmovd  xmm2,edx
    36df:	49 01 c0             	add    r8,rax
    36e2:	c4 e2 7d 58 d2       	vpbroadcastd ymm2,xmm2
    36e7:	66 0f 1f 84 00 00 00 	nop    WORD PTR [rax+rax*1+0x0]
    36ee:	00 00 
    36f0:	8b 50 18             	mov    edx,DWORD PTR [rax+0x18]
    36f3:	44 8b 08             	mov    r9d,DWORD PTR [rax]
    36f6:	c5 c1 ef ff          	vpxor  xmm7,xmm7,xmm7
    36fa:	48 05 c0 00 00 00    	add    rax,0xc0
    3700:	c5 fd 7f 7d d0       	vmovdqa YMMWORD PTR [rbp-0x30],ymm7
    3705:	48 c1 e2 20          	shl    rdx,0x20
    3709:	49 09 d1             	or     r9,rdx
    370c:	48 8b 55 d8          	mov    rdx,QWORD PTR [rbp-0x28]
    3710:	4c 89 4d d0          	mov    QWORD PTR [rbp-0x30],r9
    3714:	44 8b 88 70 ff ff ff 	mov    r9d,DWORD PTR [rax-0x90]
    371b:	48 21 ca             	and    rdx,rcx
    371e:	4c 09 ca             	or     rdx,r9
    3721:	44 8b 48 88          	mov    r9d,DWORD PTR [rax-0x78]
    3725:	89 d2                	mov    edx,edx
    3727:	49 c1 e1 20          	shl    r9,0x20
    372b:	4c 09 ca             	or     rdx,r9
    372e:	44 8b 48 a0          	mov    r9d,DWORD PTR [rax-0x60]
    3732:	48 89 55 d8          	mov    QWORD PTR [rbp-0x28],rdx
    3736:	48 8b 55 e0          	mov    rdx,QWORD PTR [rbp-0x20]
    373a:	48 21 ca             	and    rdx,rcx
    373d:	4c 09 ca             	or     rdx,r9
    3740:	44 8b 48 b8          	mov    r9d,DWORD PTR [rax-0x48]
    3744:	89 d2                	mov    edx,edx
    3746:	49 c1 e1 20          	shl    r9,0x20
    374a:	4c 09 ca             	or     rdx,r9
    374d:	44 8b 48 d0          	mov    r9d,DWORD PTR [rax-0x30]
    3751:	48 89 55 e0          	mov    QWORD PTR [rbp-0x20],rdx
    3755:	48 8b 55 e8          	mov    rdx,QWORD PTR [rbp-0x18]
    3759:	48 21 ca             	and    rdx,rcx
    375c:	4c 09 ca             	or     rdx,r9
    375f:	44 8b 48 e8          	mov    r9d,DWORD PTR [rax-0x18]
    3763:	89 d2                	mov    edx,edx
    3765:	49 c1 e1 20          	shl    r9,0x20
    3769:	4c 09 ca             	or     rdx,r9
    376c:	48 89 55 e8          	mov    QWORD PTR [rbp-0x18],rdx
    3770:	c5 fd 6f 7d d0       	vmovdqa ymm7,YMMWORD PTR [rbp-0x30]
    3775:	c5 ed db 45 d0       	vpand  ymm0,ymm2,YMMWORD PTR [rbp-0x30]
    377a:	c5 f5 72 d7 10       	vpsrld ymm1,ymm7,0x10
    377f:	c5 fc 5b c9          	vcvtdq2ps ymm1,ymm1
    3783:	c5 f4 59 cd          	vmulps ymm1,ymm1,ymm5
    3787:	c5 fc 5b c0          	vcvtdq2ps ymm0,ymm0
    378b:	c5 fc 58 c1          	vaddps ymm0,ymm0,ymm1
    378f:	c5 fc 5c c6          	vsubps ymm0,ymm0,ymm6
    3793:	c5 fc 59 c0          	vmulps ymm0,ymm0,ymm0
    3797:	c5 ba 58 c8          	vaddss xmm1,xmm8,xmm0
    379b:	c5 78 c6 c0 55       	vshufps xmm8,xmm0,xmm0,0x55
    37a0:	c5 f8 c6 f8 ff       	vshufps xmm7,xmm0,xmm0,0xff
    37a5:	c4 c1 72 58 c8       	vaddss xmm1,xmm1,xmm8
    37aa:	c5 78 15 c0          	vunpckhps xmm8,xmm0,xmm0
    37ae:	c4 e3 7d 19 c0 01    	vextractf128 xmm0,ymm0,0x1
    37b4:	c4 c1 72 58 c8       	vaddss xmm1,xmm1,xmm8
    37b9:	c5 f2 58 cf          	vaddss xmm1,xmm1,xmm7
    37bd:	c5 f8 c6 f8 55       	vshufps xmm7,xmm0,xmm0,0x55
    37c2:	c5 f2 58 c8          	vaddss xmm1,xmm1,xmm0
    37c6:	c5 f2 58 cf          	vaddss xmm1,xmm1,xmm7
    37ca:	c5 f8 15 f8          	vunpckhps xmm7,xmm0,xmm0
    37ce:	c5 f8 c6 c0 ff       	vshufps xmm0,xmm0,xmm0,0xff
    37d3:	c5 f2 58 cf          	vaddss xmm1,xmm1,xmm7
    37d7:	c5 72 58 c0          	vaddss xmm8,xmm1,xmm0
    37db:	49 39 c0             	cmp    r8,rax
    37de:	0f 85 0c ff ff ff    	jne    36f0 <_Z27standartDeviationCollisionsP7HashMapf+0x90>
    37e4:	89 f0                	mov    eax,esi
    37e6:	83 e0 f8             	and    eax,0xfffffff8
    37e9:	40 f6 c6 07          	test   sil,0x7
    37ed:	0f 84 45 01 00 00    	je     3938 <_Z27standartDeviationCollisionsP7HashMapf+0x2d8>
    37f3:	c5 f8 77             	vzeroupper
    37f6:	89 f1                	mov    ecx,esi
    37f8:	29 c1                	sub    ecx,eax
    37fa:	8d 51 ff             	lea    edx,[rcx-0x1]
    37fd:	83 fa 02             	cmp    edx,0x2
    3800:	0f 86 8b 00 00 00    	jbe    3891 <_Z27standartDeviationCollisionsP7HashMapf+0x231>
    3806:	c4 e2 79 18 15 f9 07 	vbroadcastss xmm2,DWORD PTR [rip+0x7f9]        # 4008 <_IO_stdin_used+0x8>
    380d:	00 00 
    380f:	89 c2                	mov    edx,eax
    3811:	48 8d 14 52          	lea    rdx,[rdx+rdx*2]
    3815:	c5 f9 6e 4c d7 10    	vmovd  xmm1,DWORD PTR [rdi+rdx*8+0x10]
    381b:	c4 e3 71 22 4c d7 28 	vpinsrd xmm1,xmm1,DWORD PTR [rdi+rdx*8+0x28],0x1
    3822:	01 
    3823:	c4 e3 71 22 4c d7 40 	vpinsrd xmm1,xmm1,DWORD PTR [rdi+rdx*8+0x40],0x2
    382a:	02 
    382b:	c4 e3 71 22 4c d7 58 	vpinsrd xmm1,xmm1,DWORD PTR [rdi+rdx*8+0x58],0x3
    3832:	03 
    3833:	ba ff ff 00 00       	mov    edx,0xffff
    3838:	c5 f9 6e c2          	vmovd  xmm0,edx
    383c:	89 ca                	mov    edx,ecx
    383e:	c5 f9 70 c0 00       	vpshufd xmm0,xmm0,0x0
    3843:	83 e2 fc             	and    edx,0xfffffffc
    3846:	c5 f1 db c0          	vpand  xmm0,xmm1,xmm0
    384a:	c5 f1 72 d1 10       	vpsrld xmm1,xmm1,0x10
    384f:	01 d0                	add    eax,edx
    3851:	83 e1 03             	and    ecx,0x3
    3854:	c5 f8 5b c9          	vcvtdq2ps xmm1,xmm1
    3858:	c5 f0 59 ca          	vmulps xmm1,xmm1,xmm2
    385c:	c5 f8 5b c0          	vcvtdq2ps xmm0,xmm0
    3860:	c5 f8 58 c1          	vaddps xmm0,xmm0,xmm1
    3864:	c5 d8 c6 cc 00       	vshufps xmm1,xmm4,xmm4,0x0
    3869:	c5 f8 5c c1          	vsubps xmm0,xmm0,xmm1
    386d:	c5 f8 59 c0          	vmulps xmm0,xmm0,xmm0
    3871:	c5 ba 58 c8          	vaddss xmm1,xmm8,xmm0
    3875:	c5 f8 c6 d0 55       	vshufps xmm2,xmm0,xmm0,0x55
    387a:	c5 f2 58 ca          	vaddss xmm1,xmm1,xmm2
    387e:	c5 f8 15 d0          	vunpckhps xmm2,xmm0,xmm0
    3882:	c5 f8 c6 c0 ff       	vshufps xmm0,xmm0,xmm0,0xff
    3887:	c5 f2 58 ca          	vaddss xmm1,xmm1,xmm2
    388b:	c5 72 58 c0          	vaddss xmm8,xmm1,xmm0
    388f:	74 5b                	je     38ec <_Z27standartDeviationCollisionsP7HashMapf+0x28c>
    3891:	89 c2                	mov    edx,eax
    3893:	48 8d 14 52          	lea    rdx,[rdx+rdx*2]
    3897:	8b 54 d7 10          	mov    edx,DWORD PTR [rdi+rdx*8+0x10]
    389b:	c4 e1 e2 2a c2       	vcvtsi2ss xmm0,xmm3,rdx
    38a0:	8d 50 01             	lea    edx,[rax+0x1]
    38a3:	c5 fa 5c c4          	vsubss xmm0,xmm0,xmm4
    38a7:	c5 fa 59 c0          	vmulss xmm0,xmm0,xmm0
    38ab:	c5 3a 58 c0          	vaddss xmm8,xmm8,xmm0
    38af:	39 f2                	cmp    edx,esi
    38b1:	73 39                	jae    38ec <_Z27standartDeviationCollisionsP7HashMapf+0x28c>
    38b3:	48 8d 14 52          	lea    rdx,[rdx+rdx*2]
    38b7:	83 c0 02             	add    eax,0x2
    38ba:	8b 54 d7 10          	mov    edx,DWORD PTR [rdi+rdx*8+0x10]
    38be:	c4 e1 e2 2a c2       	vcvtsi2ss xmm0,xmm3,rdx
    38c3:	c5 fa 5c c4          	vsubss xmm0,xmm0,xmm4
    38c7:	c5 fa 59 c0          	vmulss xmm0,xmm0,xmm0
    38cb:	c5 3a 58 c0          	vaddss xmm8,xmm8,xmm0
    38cf:	39 f0                	cmp    eax,esi
    38d1:	73 19                	jae    38ec <_Z27standartDeviationCollisionsP7HashMapf+0x28c>
    38d3:	48 8d 04 40          	lea    rax,[rax+rax*2]
    38d7:	8b 44 c7 10          	mov    eax,DWORD PTR [rdi+rax*8+0x10]
    38db:	c4 e1 e2 2a c0       	vcvtsi2ss xmm0,xmm3,rax
    38e0:	c5 fa 5c c4          	vsubss xmm0,xmm0,xmm4
    38e4:	c5 fa 59 c0          	vmulss xmm0,xmm0,xmm0
    38e8:	c5 3a 58 c0          	vaddss xmm8,xmm8,xmm0
    38ec:	c4 e1 e2 2a de       	vcvtsi2ss xmm3,xmm3,rsi
    38f1:	c5 f8 57 c0          	vxorps xmm0,xmm0,xmm0
    38f5:	c5 3a 5e c3          	vdivss xmm8,xmm8,xmm3
    38f9:	c4 c1 78 2e c0       	vucomiss xmm0,xmm8
    38fe:	77 49                	ja     3949 <_Z27standartDeviationCollisionsP7HashMapf+0x2e9>
    3900:	4c 8b 6d f8          	mov    r13,QWORD PTR [rbp-0x8]
    3904:	c4 c1 3a 51 c0       	vsqrtss xmm0,xmm8,xmm8
    3909:	c9                   	leave
    390a:	49 8d 65 f0          	lea    rsp,[r13-0x10]
    390e:	41 5d                	pop    r13
    3910:	c3                   	ret
    3911:	0f 1f 80 00 00 00 00 	nop    DWORD PTR [rax+0x0]
    3918:	c4 41 38 57 c0       	vxorps xmm8,xmm8,xmm8
    391d:	4c 8b 6d f8          	mov    r13,QWORD PTR [rbp-0x8]
    3921:	c4 41 3a 5e c0       	vdivss xmm8,xmm8,xmm8
    3926:	c9                   	leave
    3927:	49 8d 65 f0          	lea    rsp,[r13-0x10]
    392b:	41 5d                	pop    r13
    392d:	c4 c1 3a 51 c0       	vsqrtss xmm0,xmm8,xmm8
    3932:	c3                   	ret
    3933:	0f 1f 44 00 00       	nop    DWORD PTR [rax+rax*1+0x0]
    3938:	c5 f8 77             	vzeroupper
    393b:	eb af                	jmp    38ec <_Z27standartDeviationCollisionsP7HashMapf+0x28c>
    393d:	31 c0                	xor    eax,eax
    393f:	c4 41 38 57 c0       	vxorps xmm8,xmm8,xmm8
    3944:	e9 ad fe ff ff       	jmp    37f6 <_Z27standartDeviationCollisionsP7HashMapf+0x196>
    3949:	4c 8b 6d f8          	mov    r13,QWORD PTR [rbp-0x8]
    394d:	c5 78 29 c0          	vmovaps xmm0,xmm8
    3951:	c9                   	leave
    3952:	49 8d 65 f0          	lea    rsp,[r13-0x10]
    3956:	41 5d                	pop    r13
    3958:	e9 23 d8 ff ff       	jmp    1180 <sqrtf@plt>
    395d:	48 8d 0d cc 0c 00 00 	lea    rcx,[rip+0xccc]        # 4630 <_IO_stdin_used+0x630>
    3964:	ba b9 00 00 00       	mov    edx,0xb9
    3969:	48 8d 35 4d 07 00 00 	lea    rsi,[rip+0x74d]        # 40bd <_IO_stdin_used+0xbd>
    3970:	48 8d 3d ab 06 00 00 	lea    rdi,[rip+0x6ab]        # 4022 <_IO_stdin_used+0x22>
    3977:	e8 f4 d6 ff ff       	call   1070 <__assert_fail@plt>
    397c:	0f 1f 40 00          	nop    DWORD PTR [rax+0x0]

0000000000003980 <my_strcmp>:
    3980:	c5 fd 6f 07          	vmovdqa ymm0,YMMWORD PTR [rdi]
    3984:	c5 fd 6f 0e          	vmovdqa ymm1,YMMWORD PTR [rsi]
    3988:	c4 e2 7d 29 d1       	vpcmpeqq ymm2,ymm0,ymm1
    398d:	c5 fd d7 c2          	vpmovmskb eax,ymm2
    3991:	f7 d0                	not    eax
    3993:	c3                   	ret

Disassembly of section .fini:

0000000000003994 <_fini>:
    3994:	f3 0f 1e fa          	endbr64
    3998:	48 83 ec 08          	sub    rsp,0x8
    399c:	48 83 c4 08          	add    rsp,0x8
    39a0:	c3                   	ret
