
build/main:     file format elf64-x86-64


Disassembly of section .init:

0000000000001000 <_init>:
    1000:	f3 0f 1e fa          	endbr64
    1004:	48 83 ec 08          	sub    rsp,0x8
    1008:	48 8b 05 e1 4f 00 00 	mov    rax,QWORD PTR [rip+0x4fe1]        # 5ff0 <__gmon_start__@Base>
    100f:	48 85 c0             	test   rax,rax
    1012:	74 02                	je     1016 <_init+0x16>
    1014:	ff d0                	call   rax
    1016:	48 83 c4 08          	add    rsp,0x8
    101a:	c3                   	ret

Disassembly of section .plt:

0000000000001020 <__printf_chk@plt-0x10>:
    1020:	ff 35 d2 4e 00 00    	push   QWORD PTR [rip+0x4ed2]        # 5ef8 <_GLOBAL_OFFSET_TABLE_+0x8>
    1026:	ff 25 d4 4e 00 00    	jmp    QWORD PTR [rip+0x4ed4]        # 5f00 <_GLOBAL_OFFSET_TABLE_+0x10>
    102c:	0f 1f 40 00          	nop    DWORD PTR [rax+0x0]

0000000000001030 <__printf_chk@plt>:
    1030:	ff 25 d2 4e 00 00    	jmp    QWORD PTR [rip+0x4ed2]        # 5f08 <__printf_chk@GLIBC_2.3.4>
    1036:	68 00 00 00 00       	push   0x0
    103b:	e9 e0 ff ff ff       	jmp    1020 <_init+0x20>

0000000000001040 <rand@plt>:
    1040:	ff 25 ca 4e 00 00    	jmp    QWORD PTR [rip+0x4eca]        # 5f10 <rand@GLIBC_2.2.5>
    1046:	68 01 00 00 00       	push   0x1
    104b:	e9 d0 ff ff ff       	jmp    1020 <_init+0x20>

0000000000001050 <strchr@plt>:
    1050:	ff 25 c2 4e 00 00    	jmp    QWORD PTR [rip+0x4ec2]        # 5f18 <strchr@GLIBC_2.2.5>
    1056:	68 02 00 00 00       	push   0x2
    105b:	e9 c0 ff ff ff       	jmp    1020 <_init+0x20>

0000000000001060 <__strncpy_chk@plt>:
    1060:	ff 25 ba 4e 00 00    	jmp    QWORD PTR [rip+0x4eba]        # 5f20 <__strncpy_chk@GLIBC_2.3.4>
    1066:	68 03 00 00 00       	push   0x3
    106b:	e9 b0 ff ff ff       	jmp    1020 <_init+0x20>

0000000000001070 <__assert_fail@plt>:
    1070:	ff 25 b2 4e 00 00    	jmp    QWORD PTR [rip+0x4eb2]        # 5f28 <__assert_fail@GLIBC_2.2.5>
    1076:	68 04 00 00 00       	push   0x4
    107b:	e9 a0 ff ff ff       	jmp    1020 <_init+0x20>

0000000000001080 <calloc@plt>:
    1080:	ff 25 aa 4e 00 00    	jmp    QWORD PTR [rip+0x4eaa]        # 5f30 <calloc@GLIBC_2.2.5>
    1086:	68 05 00 00 00       	push   0x5
    108b:	e9 90 ff ff ff       	jmp    1020 <_init+0x20>

0000000000001090 <open@plt>:
    1090:	ff 25 a2 4e 00 00    	jmp    QWORD PTR [rip+0x4ea2]        # 5f38 <open@GLIBC_2.2.5>
    1096:	68 06 00 00 00       	push   0x6
    109b:	e9 80 ff ff ff       	jmp    1020 <_init+0x20>

00000000000010a0 <aligned_alloc@plt>:
    10a0:	ff 25 9a 4e 00 00    	jmp    QWORD PTR [rip+0x4e9a]        # 5f40 <aligned_alloc@GLIBC_2.16>
    10a6:	68 07 00 00 00       	push   0x7
    10ab:	e9 70 ff ff ff       	jmp    1020 <_init+0x20>

00000000000010b0 <stat@plt>:
    10b0:	ff 25 92 4e 00 00    	jmp    QWORD PTR [rip+0x4e92]        # 5f48 <stat@GLIBC_2.33>
    10b6:	68 08 00 00 00       	push   0x8
    10bb:	e9 60 ff ff ff       	jmp    1020 <_init+0x20>

00000000000010c0 <srand@plt>:
    10c0:	ff 25 8a 4e 00 00    	jmp    QWORD PTR [rip+0x4e8a]        # 5f50 <srand@GLIBC_2.2.5>
    10c6:	68 09 00 00 00       	push   0x9
    10cb:	e9 50 ff ff ff       	jmp    1020 <_init+0x20>

00000000000010d0 <fclose@plt>:
    10d0:	ff 25 82 4e 00 00    	jmp    QWORD PTR [rip+0x4e82]        # 5f58 <fclose@GLIBC_2.2.5>
    10d6:	68 0a 00 00 00       	push   0xa
    10db:	e9 40 ff ff ff       	jmp    1020 <_init+0x20>

00000000000010e0 <__stack_chk_fail@plt>:
    10e0:	ff 25 7a 4e 00 00    	jmp    QWORD PTR [rip+0x4e7a]        # 5f60 <__stack_chk_fail@GLIBC_2.4>
    10e6:	68 0b 00 00 00       	push   0xb
    10eb:	e9 30 ff ff ff       	jmp    1020 <_init+0x20>

00000000000010f0 <fopen@plt>:
    10f0:	ff 25 72 4e 00 00    	jmp    QWORD PTR [rip+0x4e72]        # 5f68 <fopen@GLIBC_2.2.5>
    10f6:	68 0c 00 00 00       	push   0xc
    10fb:	e9 20 ff ff ff       	jmp    1020 <_init+0x20>

0000000000001100 <free@plt>:
    1100:	ff 25 6a 4e 00 00    	jmp    QWORD PTR [rip+0x4e6a]        # 5f70 <free@GLIBC_2.2.5>
    1106:	68 0d 00 00 00       	push   0xd
    110b:	e9 10 ff ff ff       	jmp    1020 <_init+0x20>

0000000000001110 <_ZNSt6chrono3_V212steady_clock3nowEv@plt>:
    1110:	ff 25 62 4e 00 00    	jmp    QWORD PTR [rip+0x4e62]        # 5f78 <_ZNSt6chrono3_V212steady_clock3nowEv@GLIBCXX_3.4.19>
    1116:	68 0e 00 00 00       	push   0xe
    111b:	e9 00 ff ff ff       	jmp    1020 <_init+0x20>

0000000000001120 <__memset_chk@plt>:
    1120:	ff 25 5a 4e 00 00    	jmp    QWORD PTR [rip+0x4e5a]        # 5f80 <__memset_chk@GLIBC_2.3.4>
    1126:	68 0f 00 00 00       	push   0xf
    112b:	e9 f0 fe ff ff       	jmp    1020 <_init+0x20>

0000000000001130 <putchar@plt>:
    1130:	ff 25 52 4e 00 00    	jmp    QWORD PTR [rip+0x4e52]        # 5f88 <putchar@GLIBC_2.2.5>
    1136:	68 10 00 00 00       	push   0x10
    113b:	e9 e0 fe ff ff       	jmp    1020 <_init+0x20>

0000000000001140 <strcmp@plt>:
    1140:	ff 25 4a 4e 00 00    	jmp    QWORD PTR [rip+0x4e4a]        # 5f90 <strcmp@GLIBC_2.2.5>
    1146:	68 11 00 00 00       	push   0x11
    114b:	e9 d0 fe ff ff       	jmp    1020 <_init+0x20>

0000000000001150 <read@plt>:
    1150:	ff 25 42 4e 00 00    	jmp    QWORD PTR [rip+0x4e42]        # 5f98 <read@GLIBC_2.2.5>
    1156:	68 12 00 00 00       	push   0x12
    115b:	e9 c0 fe ff ff       	jmp    1020 <_init+0x20>

0000000000001160 <puts@plt>:
    1160:	ff 25 3a 4e 00 00    	jmp    QWORD PTR [rip+0x4e3a]        # 5fa0 <puts@GLIBC_2.2.5>
    1166:	68 13 00 00 00       	push   0x13
    116b:	e9 b0 fe ff ff       	jmp    1020 <_init+0x20>

0000000000001170 <realloc@plt>:
    1170:	ff 25 32 4e 00 00    	jmp    QWORD PTR [rip+0x4e32]        # 5fa8 <realloc@GLIBC_2.2.5>
    1176:	68 14 00 00 00       	push   0x14
    117b:	e9 a0 fe ff ff       	jmp    1020 <_init+0x20>

0000000000001180 <__fprintf_chk@plt>:
    1180:	ff 25 2a 4e 00 00    	jmp    QWORD PTR [rip+0x4e2a]        # 5fb0 <__fprintf_chk@GLIBC_2.3.4>
    1186:	68 15 00 00 00       	push   0x15
    118b:	e9 90 fe ff ff       	jmp    1020 <_init+0x20>

0000000000001190 <sqrtf@plt>:
    1190:	ff 25 22 4e 00 00    	jmp    QWORD PTR [rip+0x4e22]        # 5fb8 <sqrtf@GLIBC_2.2.5>
    1196:	68 16 00 00 00       	push   0x16
    119b:	e9 80 fe ff ff       	jmp    1020 <_init+0x20>

00000000000011a0 <fwrite@plt>:
    11a0:	ff 25 1a 4e 00 00    	jmp    QWORD PTR [rip+0x4e1a]        # 5fc0 <fwrite@GLIBC_2.2.5>
    11a6:	68 17 00 00 00       	push   0x17
    11ab:	e9 70 fe ff ff       	jmp    1020 <_init+0x20>

00000000000011b0 <close@plt>:
    11b0:	ff 25 12 4e 00 00    	jmp    QWORD PTR [rip+0x4e12]        # 5fc8 <close@GLIBC_2.2.5>
    11b6:	68 18 00 00 00       	push   0x18
    11bb:	e9 60 fe ff ff       	jmp    1020 <_init+0x20>

00000000000011c0 <__isoc23_strtol@plt>:
    11c0:	ff 25 0a 4e 00 00    	jmp    QWORD PTR [rip+0x4e0a]        # 5fd0 <__isoc23_strtol@GLIBC_2.38>
    11c6:	68 19 00 00 00       	push   0x19
    11cb:	e9 50 fe ff ff       	jmp    1020 <_init+0x20>

Disassembly of section .plt.got:

00000000000011d0 <__cxa_finalize@plt>:
    11d0:	ff 25 02 4e 00 00    	jmp    QWORD PTR [rip+0x4e02]        # 5fd8 <__cxa_finalize@GLIBC_2.2.5>
    11d6:	66 90                	xchg   ax,ax

Disassembly of section .text:

00000000000011e0 <main>:
    11e0:	f3 0f 1e fa          	endbr64
    11e4:	53                   	push   rbx
    11e5:	48 8b 7e 08          	mov    rdi,QWORD PTR [rsi+0x8]
    11e9:	ba 0a 00 00 00       	mov    edx,0xa
    11ee:	48 8b 5e 10          	mov    rbx,QWORD PTR [rsi+0x10]
    11f2:	31 f6                	xor    esi,esi
    11f4:	e8 c7 ff ff ff       	call   11c0 <__isoc23_strtol@plt>
    11f9:	48 89 da             	mov    rdx,rbx
    11fc:	48 8d 3d 11 2e 00 00 	lea    rdi,[rip+0x2e11]        # 4014 <_IO_stdin_used+0x14>
    1203:	89 c6                	mov    esi,eax
    1205:	e8 06 1d 00 00       	call   2f10 <_Z7testAllPKcjS0_>
    120a:	31 c0                	xor    eax,eax
    120c:	5b                   	pop    rbx
    120d:	c3                   	ret
    120e:	66 90                	xchg   ax,ax

0000000000001210 <_start>:
    1210:	f3 0f 1e fa          	endbr64
    1214:	31 ed                	xor    ebp,ebp
    1216:	49 89 d1             	mov    r9,rdx
    1219:	5e                   	pop    rsi
    121a:	48 89 e2             	mov    rdx,rsp
    121d:	48 83 e4 f0          	and    rsp,0xfffffffffffffff0
    1221:	50                   	push   rax
    1222:	54                   	push   rsp
    1223:	45 31 c0             	xor    r8d,r8d
    1226:	31 c9                	xor    ecx,ecx
    1228:	48 8d 3d b1 ff ff ff 	lea    rdi,[rip+0xffffffffffffffb1]        # 11e0 <main>
    122f:	ff 15 ab 4d 00 00    	call   QWORD PTR [rip+0x4dab]        # 5fe0 <__libc_start_main@GLIBC_2.34>
    1235:	f4                   	hlt
    1236:	66 2e 0f 1f 84 00 00 	cs nop WORD PTR [rax+rax*1+0x0]
    123d:	00 00 00 

0000000000001240 <deregister_tm_clones>:
    1240:	48 8d 3d c9 4d 00 00 	lea    rdi,[rip+0x4dc9]        # 6010 <__TMC_END__>
    1247:	48 8d 05 c2 4d 00 00 	lea    rax,[rip+0x4dc2]        # 6010 <__TMC_END__>
    124e:	48 39 f8             	cmp    rax,rdi
    1251:	74 15                	je     1268 <deregister_tm_clones+0x28>
    1253:	48 8b 05 8e 4d 00 00 	mov    rax,QWORD PTR [rip+0x4d8e]        # 5fe8 <_ITM_deregisterTMCloneTable@Base>
    125a:	48 85 c0             	test   rax,rax
    125d:	74 09                	je     1268 <deregister_tm_clones+0x28>
    125f:	ff e0                	jmp    rax
    1261:	0f 1f 80 00 00 00 00 	nop    DWORD PTR [rax+0x0]
    1268:	c3                   	ret
    1269:	0f 1f 80 00 00 00 00 	nop    DWORD PTR [rax+0x0]

0000000000001270 <register_tm_clones>:
    1270:	48 8d 3d 99 4d 00 00 	lea    rdi,[rip+0x4d99]        # 6010 <__TMC_END__>
    1277:	48 8d 35 92 4d 00 00 	lea    rsi,[rip+0x4d92]        # 6010 <__TMC_END__>
    127e:	48 29 fe             	sub    rsi,rdi
    1281:	48 89 f0             	mov    rax,rsi
    1284:	48 c1 ee 3f          	shr    rsi,0x3f
    1288:	48 c1 f8 03          	sar    rax,0x3
    128c:	48 01 c6             	add    rsi,rax
    128f:	48 d1 fe             	sar    rsi,1
    1292:	74 14                	je     12a8 <register_tm_clones+0x38>
    1294:	48 8b 05 5d 4d 00 00 	mov    rax,QWORD PTR [rip+0x4d5d]        # 5ff8 <_ITM_registerTMCloneTable@Base>
    129b:	48 85 c0             	test   rax,rax
    129e:	74 08                	je     12a8 <register_tm_clones+0x38>
    12a0:	ff e0                	jmp    rax
    12a2:	66 0f 1f 44 00 00    	nop    WORD PTR [rax+rax*1+0x0]
    12a8:	c3                   	ret
    12a9:	0f 1f 80 00 00 00 00 	nop    DWORD PTR [rax+0x0]

00000000000012b0 <__do_global_dtors_aux>:
    12b0:	f3 0f 1e fa          	endbr64
    12b4:	80 3d 55 4d 00 00 00 	cmp    BYTE PTR [rip+0x4d55],0x0        # 6010 <__TMC_END__>
    12bb:	75 2b                	jne    12e8 <__do_global_dtors_aux+0x38>
    12bd:	55                   	push   rbp
    12be:	48 83 3d 12 4d 00 00 	cmp    QWORD PTR [rip+0x4d12],0x0        # 5fd8 <__cxa_finalize@GLIBC_2.2.5>
    12c5:	00 
    12c6:	48 89 e5             	mov    rbp,rsp
    12c9:	74 0c                	je     12d7 <__do_global_dtors_aux+0x27>
    12cb:	48 8b 3d 36 4d 00 00 	mov    rdi,QWORD PTR [rip+0x4d36]        # 6008 <__dso_handle>
    12d2:	e8 f9 fe ff ff       	call   11d0 <__cxa_finalize@plt>
    12d7:	e8 64 ff ff ff       	call   1240 <deregister_tm_clones>
    12dc:	c6 05 2d 4d 00 00 01 	mov    BYTE PTR [rip+0x4d2d],0x1        # 6010 <__TMC_END__>
    12e3:	5d                   	pop    rbp
    12e4:	c3                   	ret
    12e5:	0f 1f 00             	nop    DWORD PTR [rax]
    12e8:	c3                   	ret
    12e9:	0f 1f 80 00 00 00 00 	nop    DWORD PTR [rax+0x0]

00000000000012f0 <frame_dummy>:
    12f0:	f3 0f 1e fa          	endbr64
    12f4:	e9 77 ff ff ff       	jmp    1270 <register_tm_clones>
    12f9:	0f 1f 80 00 00 00 00 	nop    DWORD PTR [rax+0x0]

0000000000001300 <_Z16buildStringArrayPcj>:
    1300:	f3 0f 1e fa          	endbr64
    1304:	41 57                	push   r15
    1306:	41 56                	push   r14
    1308:	41 55                	push   r13
    130a:	41 54                	push   r12
    130c:	55                   	push   rbp
    130d:	53                   	push   rbx
    130e:	48 83 ec 28          	sub    rsp,0x28
    1312:	48 85 ff             	test   rdi,rdi
    1315:	0f 84 e9 00 00 00    	je     1404 <_Z16buildStringArrayPcj+0x104>
    131b:	41 89 f4             	mov    r12d,esi
    131e:	41 89 f7             	mov    r15d,esi
    1321:	48 89 fd             	mov    rbp,rdi
    1324:	be 10 00 00 00       	mov    esi,0x10
    1329:	44 89 e3             	mov    ebx,r12d
    132c:	4c 89 ff             	mov    rdi,r15
    132f:	e8 4c fd ff ff       	call   1080 <calloc@plt>
    1334:	c1 e3 05             	shl    ebx,0x5
    1337:	bf 20 00 00 00       	mov    edi,0x20
    133c:	48 89 de             	mov    rsi,rbx
    133f:	49 89 c5             	mov    r13,rax
    1342:	e8 59 fd ff ff       	call   10a0 <aligned_alloc@plt>
    1347:	49 89 c6             	mov    r14,rax
    134a:	45 85 e4             	test   r12d,r12d
    134d:	0f 84 9f 00 00 00    	je     13f2 <_Z16buildStringArrayPcj+0xf2>
    1353:	49 c1 e7 04          	shl    r15,0x4
    1357:	4c 89 7c 24 18       	mov    QWORD PTR [rsp+0x18],r15
    135c:	45 31 ff             	xor    r15d,r15d
    135f:	90                   	nop
    1360:	48 89 ef             	mov    rdi,rbp
    1363:	be 0a 00 00 00       	mov    esi,0xa
    1368:	e8 e3 fc ff ff       	call   1050 <strchr@plt>
    136d:	48 89 ee             	mov    rsi,rbp
    1370:	47 8d 14 3f          	lea    r10d,[r15+r15*1]
    1374:	48 8d 68 01          	lea    rbp,[rax+0x1]
    1378:	4c 89 d1             	mov    rcx,r10
    137b:	4f 8d 0c 16          	lea    r9,[r14+r10*1]
    137f:	4c 89 54 24 10       	mov    QWORD PTR [rsp+0x10],r10
    1384:	49 89 ec             	mov    r12,rbp
    1387:	4c 89 cf             	mov    rdi,r9
    138a:	4c 89 0c 24          	mov    QWORD PTR [rsp],r9
    138e:	49 29 f4             	sub    r12,rsi
    1391:	4c 39 d3             	cmp    rbx,r10
    1394:	48 0f 43 cb          	cmovae rcx,rbx
    1398:	44 89 e2             	mov    edx,r12d
    139b:	48 89 54 24 08       	mov    QWORD PTR [rsp+0x8],rdx
    13a0:	4c 29 d1             	sub    rcx,r10
    13a3:	e8 b8 fc ff ff       	call   1060 <__strncpy_chk@plt>
    13a8:	48 8b 54 24 08       	mov    rdx,QWORD PTR [rsp+0x8]
    13ad:	4c 8b 54 24 10       	mov    r10,QWORD PTR [rsp+0x10]
    13b2:	4a 8d 3c 12          	lea    rdi,[rdx+r10*1]
    13b6:	ba 20 00 00 00       	mov    edx,0x20
    13bb:	48 39 fb             	cmp    rbx,rdi
    13be:	48 89 f9             	mov    rcx,rdi
    13c1:	48 0f 43 cb          	cmovae rcx,rbx
    13c5:	44 29 e2             	sub    edx,r12d
    13c8:	31 f6                	xor    esi,esi
    13ca:	48 29 f9             	sub    rcx,rdi
    13cd:	4c 01 f7             	add    rdi,r14
    13d0:	e8 4b fd ff ff       	call   1120 <__memset_chk@plt>
    13d5:	4c 8b 0c 24          	mov    r9,QWORD PTR [rsp]
    13d9:	47 89 64 3d 0c       	mov    DWORD PTR [r13+r15*1+0xc],r12d
    13de:	4f 89 4c 3d 00       	mov    QWORD PTR [r13+r15*1+0x0],r9
    13e3:	49 83 c7 10          	add    r15,0x10
    13e7:	4c 39 7c 24 18       	cmp    QWORD PTR [rsp+0x18],r15
    13ec:	0f 85 6e ff ff ff    	jne    1360 <_Z16buildStringArrayPcj+0x60>
    13f2:	48 83 c4 28          	add    rsp,0x28
    13f6:	4c 89 e8             	mov    rax,r13
    13f9:	5b                   	pop    rbx
    13fa:	5d                   	pop    rbp
    13fb:	41 5c                	pop    r12
    13fd:	41 5d                	pop    r13
    13ff:	41 5e                	pop    r14
    1401:	41 5f                	pop    r15
    1403:	c3                   	ret
    1404:	48 8d 0d dd 2e 00 00 	lea    rcx,[rip+0x2edd]        # 42e8 <_IO_stdin_used+0x2e8>
    140b:	ba 15 00 00 00       	mov    edx,0x15
    1410:	48 8d 35 01 2f 00 00 	lea    rsi,[rip+0x2f01]        # 4318 <_IO_stdin_used+0x318>
    1417:	48 8d 3d ff 2b 00 00 	lea    rdi,[rip+0x2bff]        # 401d <_IO_stdin_used+0x1d>
    141e:	e8 4d fc ff ff       	call   1070 <__assert_fail@plt>
    1423:	66 66 2e 0f 1f 84 00 	data16 cs nop WORD PTR [rax+rax*1+0x0]
    142a:	00 00 00 00 
    142e:	66 90                	xchg   ax,ax

0000000000001430 <_Z11hashMapCtorPFj8string_tEj>:
    1430:	f3 0f 1e fa          	endbr64
    1434:	55                   	push   rbp
    1435:	48 89 e5             	mov    rbp,rsp
    1438:	41 56                	push   r14
    143a:	41 89 d6             	mov    r14d,edx
    143d:	41 55                	push   r13
    143f:	41 54                	push   r12
    1441:	49 89 fc             	mov    r12,rdi
    1444:	53                   	push   rbx
    1445:	48 83 e4 e0          	and    rsp,0xffffffffffffffe0
    1449:	48 83 ec 40          	sub    rsp,0x40
    144d:	64 48 8b 04 25 28 00 	mov    rax,QWORD PTR fs:0x28
    1454:	00 00 
    1456:	48 89 44 24 38       	mov    QWORD PTR [rsp+0x38],rax
    145b:	31 c0                	xor    eax,eax
    145d:	48 89 77 10          	mov    QWORD PTR [rdi+0x10],rsi
    1461:	be 18 00 00 00       	mov    esi,0x18
    1466:	c7 47 0c 00 00 00 00 	mov    DWORD PTR [rdi+0xc],0x0
    146d:	44 89 77 08          	mov    DWORD PTR [rdi+0x8],r14d
    1471:	4c 89 f7             	mov    rdi,r14
    1474:	e8 07 fc ff ff       	call   1080 <calloc@plt>
    1479:	49 89 04 24          	mov    QWORD PTR [r12],rax
    147d:	45 85 f6             	test   r14d,r14d
    1480:	74 32                	je     14b4 <_Z11hashMapCtorPFj8string_tEj+0x84>
    1482:	48 89 c3             	mov    rbx,rax
    1485:	4b 8d 04 76          	lea    rax,[r14+r14*2]
    1489:	49 89 e5             	mov    r13,rsp
    148c:	4c 8d 34 c3          	lea    r14,[rbx+rax*8]
    1490:	4c 89 ef             	mov    rdi,r13
    1493:	48 83 c3 18          	add    rbx,0x18
    1497:	e8 34 0a 00 00       	call   1ed0 <_Z8listCtorv>
    149c:	c5 fa 6f 04 24       	vmovdqu xmm0,XMMWORD PTR [rsp]
    14a1:	c5 fa 7f 43 e8       	vmovdqu XMMWORD PTR [rbx-0x18],xmm0
    14a6:	48 8b 44 24 10       	mov    rax,QWORD PTR [rsp+0x10]
    14ab:	48 89 43 f8          	mov    QWORD PTR [rbx-0x8],rax
    14af:	4c 39 f3             	cmp    rbx,r14
    14b2:	75 dc                	jne    1490 <_Z11hashMapCtorPFj8string_tEj+0x60>
    14b4:	48 8b 44 24 38       	mov    rax,QWORD PTR [rsp+0x38]
    14b9:	64 48 2b 04 25 28 00 	sub    rax,QWORD PTR fs:0x28
    14c0:	00 00 
    14c2:	75 10                	jne    14d4 <_Z11hashMapCtorPFj8string_tEj+0xa4>
    14c4:	48 8d 65 e0          	lea    rsp,[rbp-0x20]
    14c8:	4c 89 e0             	mov    rax,r12
    14cb:	5b                   	pop    rbx
    14cc:	41 5c                	pop    r12
    14ce:	41 5d                	pop    r13
    14d0:	41 5e                	pop    r14
    14d2:	5d                   	pop    rbp
    14d3:	c3                   	ret
    14d4:	e8 07 fc ff ff       	call   10e0 <__stack_chk_fail@plt>
    14d9:	0f 1f 80 00 00 00 00 	nop    DWORD PTR [rax+0x0]

00000000000014e0 <_Z17hashMapAddElementP7HashMap8string_t>:
    14e0:	f3 0f 1e fa          	endbr64
    14e4:	55                   	push   rbp
    14e5:	48 89 e5             	mov    rbp,rsp
    14e8:	41 57                	push   r15
    14ea:	41 56                	push   r14
    14ec:	41 55                	push   r13
    14ee:	41 54                	push   r12
    14f0:	53                   	push   rbx
    14f1:	48 83 e4 e0          	and    rsp,0xffffffffffffffe0
    14f5:	48 83 ec 60          	sub    rsp,0x60
    14f9:	64 48 8b 04 25 28 00 	mov    rax,QWORD PTR fs:0x28
    1500:	00 00 
    1502:	48 89 44 24 58       	mov    QWORD PTR [rsp+0x58],rax
    1507:	31 c0                	xor    eax,eax
    1509:	48 85 ff             	test   rdi,rdi
    150c:	0f 84 51 02 00 00    	je     1763 <_Z17hashMapAddElementP7HashMap8string_t+0x283>
    1512:	49 89 fc             	mov    r12,rdi
    1515:	48 89 d3             	mov    rbx,rdx
    1518:	48 89 f7             	mov    rdi,rsi
    151b:	49 89 f5             	mov    r13,rsi
    151e:	48 89 d6             	mov    rsi,rdx
    1521:	41 ff 54 24 10       	call   QWORD PTR [r12+0x10]
    1526:	31 d2                	xor    edx,edx
    1528:	4c 89 ee             	mov    rsi,r13
    152b:	89 c1                	mov    ecx,eax
    152d:	89 c8                	mov    eax,ecx
    152f:	41 f7 74 24 08       	div    DWORD PTR [r12+0x8]
    1534:	89 d0                	mov    eax,edx
    1536:	89 54 24 14          	mov    DWORD PTR [rsp+0x14],edx
    153a:	48 8d 14 40          	lea    rdx,[rax+rax*2]
    153e:	49 8b 04 24          	mov    rax,QWORD PTR [r12]
    1542:	48 8d 3c d0          	lea    rdi,[rax+rdx*8]
    1546:	48 b8 00 00 00 00 ff 	movabs rax,0xffffffff00000000
    154d:	ff ff ff 
    1550:	48 21 c3             	and    rbx,rax
    1553:	48 89 da             	mov    rdx,rbx
    1556:	48 09 ca             	or     rdx,rcx
    1559:	e8 d2 09 00 00       	call   1f30 <_Z12pushListElemP4List8string_t>
    155e:	83 f8 01             	cmp    eax,0x1
    1561:	74 3d                	je     15a0 <_Z17hashMapAddElementP7HashMap8string_t+0xc0>
    1563:	c4 c1 7a 10 44 24 0c 	vmovss xmm0,DWORD PTR [r12+0xc]
    156a:	c5 f8 2f 05 96 2a 00 	vcomiss xmm0,DWORD PTR [rip+0x2a96]        # 4008 <_IO_stdin_used+0x8>
    1571:	00 
    1572:	73 5e                	jae    15d2 <_Z17hashMapAddElementP7HashMap8string_t+0xf2>
    1574:	48 8b 44 24 58       	mov    rax,QWORD PTR [rsp+0x58]
    1579:	64 48 2b 04 25 28 00 	sub    rax,QWORD PTR fs:0x28
    1580:	00 00 
    1582:	0f 85 fa 01 00 00    	jne    1782 <_Z17hashMapAddElementP7HashMap8string_t+0x2a2>
    1588:	8b 44 24 14          	mov    eax,DWORD PTR [rsp+0x14]
    158c:	48 8d 65 d8          	lea    rsp,[rbp-0x28]
    1590:	5b                   	pop    rbx
    1591:	41 5c                	pop    r12
    1593:	41 5d                	pop    r13
    1595:	41 5e                	pop    r14
    1597:	41 5f                	pop    r15
    1599:	5d                   	pop    rbp
    159a:	c3                   	ret
    159b:	0f 1f 44 00 00       	nop    DWORD PTR [rax+rax*1+0x0]
    15a0:	41 8b 44 24 08       	mov    eax,DWORD PTR [r12+0x8]
    15a5:	c5 f0 57 c9          	vxorps xmm1,xmm1,xmm1
    15a9:	c4 e1 f2 2a c8       	vcvtsi2ss xmm1,xmm1,rax
    15ae:	c4 c1 72 59 44 24 0c 	vmulss xmm0,xmm1,DWORD PTR [r12+0xc]
    15b5:	c5 fa 58 05 47 2a 00 	vaddss xmm0,xmm0,DWORD PTR [rip+0x2a47]        # 4004 <_IO_stdin_used+0x4>
    15bc:	00 
    15bd:	c5 fa 5e c1          	vdivss xmm0,xmm0,xmm1
    15c1:	c5 f8 2f 05 3f 2a 00 	vcomiss xmm0,DWORD PTR [rip+0x2a3f]        # 4008 <_IO_stdin_used+0x8>
    15c8:	00 
    15c9:	c4 c1 7a 11 44 24 0c 	vmovss DWORD PTR [r12+0xc],xmm0
    15d0:	72 a2                	jb     1574 <_Z17hashMapAddElementP7HashMap8string_t+0x94>
    15d2:	45 8b 44 24 08       	mov    r8d,DWORD PTR [r12+0x8]
    15d7:	49 8b 44 24 10       	mov    rax,QWORD PTR [r12+0x10]
    15dc:	be 18 00 00 00       	mov    esi,0x18
    15e1:	c5 fa 11 44 24 10    	vmovss DWORD PTR [rsp+0x10],xmm0
    15e7:	47 8d 2c 00          	lea    r13d,[r8+r8*1]
    15eb:	44 89 44 24 18       	mov    DWORD PTR [rsp+0x18],r8d
    15f0:	4c 89 ef             	mov    rdi,r13
    15f3:	48 89 44 24 08       	mov    QWORD PTR [rsp+0x8],rax
    15f8:	4c 89 eb             	mov    rbx,r13
    15fb:	e8 80 fa ff ff       	call   1080 <calloc@plt>
    1600:	45 85 ed             	test   r13d,r13d
    1603:	44 8b 44 24 18       	mov    r8d,DWORD PTR [rsp+0x18]
    1608:	c5 fa 10 44 24 10    	vmovss xmm0,DWORD PTR [rsp+0x10]
    160e:	49 89 c6             	mov    r14,rax
    1611:	74 51                	je     1664 <_Z17hashMapAddElementP7HashMap8string_t+0x184>
    1613:	4b 8d 54 6d 00       	lea    rdx,[r13+r13*2+0x0]
    1618:	49 89 c7             	mov    r15,rax
    161b:	4c 8d 2c d0          	lea    r13,[rax+rdx*8]
    161f:	48 8d 44 24 20       	lea    rax,[rsp+0x20]
    1624:	48 89 44 24 18       	mov    QWORD PTR [rsp+0x18],rax
    1629:	0f 1f 80 00 00 00 00 	nop    DWORD PTR [rax+0x0]
    1630:	48 8b 7c 24 18       	mov    rdi,QWORD PTR [rsp+0x18]
    1635:	49 83 c7 18          	add    r15,0x18
    1639:	e8 92 08 00 00       	call   1ed0 <_Z8listCtorv>
    163e:	c5 fa 6f 54 24 20    	vmovdqu xmm2,XMMWORD PTR [rsp+0x20]
    1644:	c4 c1 7a 7f 57 e8    	vmovdqu XMMWORD PTR [r15-0x18],xmm2
    164a:	48 8b 54 24 30       	mov    rdx,QWORD PTR [rsp+0x30]
    164f:	49 89 57 f8          	mov    QWORD PTR [r15-0x8],rdx
    1653:	4d 39 fd             	cmp    r13,r15
    1656:	75 d8                	jne    1630 <_Z17hashMapAddElementP7HashMap8string_t+0x150>
    1658:	45 8b 44 24 08       	mov    r8d,DWORD PTR [r12+0x8]
    165d:	c4 c1 7a 10 44 24 0c 	vmovss xmm0,DWORD PTR [r12+0xc]
    1664:	c5 fa 59 1d a0 29 00 	vmulss xmm3,xmm0,DWORD PTR [rip+0x29a0]        # 400c <_IO_stdin_used+0xc>
    166b:	00 
    166c:	49 8b 3c 24          	mov    rdi,QWORD PTR [r12]
    1670:	48 89 fa             	mov    rdx,rdi
    1673:	c5 fa 11 5c 24 10    	vmovss DWORD PTR [rsp+0x10],xmm3
    1679:	45 85 c0             	test   r8d,r8d
    167c:	0f 84 b7 00 00 00    	je     1739 <_Z17hashMapAddElementP7HashMap8string_t+0x259>
    1682:	48 c7 44 24 18 00 00 	mov    QWORD PTR [rsp+0x18],0x0
    1689:	00 00 
    168b:	0f 1f 44 00 00       	nop    DWORD PTR [rax+rax*1+0x0]
    1690:	48 8b 44 24 18       	mov    rax,QWORD PTR [rsp+0x18]
    1695:	48 8d 04 40          	lea    rax,[rax+rax*2]
    1699:	4c 8d 2c c5 00 00 00 	lea    r13,[rax*8+0x0]
    16a0:	00 
    16a1:	48 8b 04 c7          	mov    rax,QWORD PTR [rdi+rax*8]
    16a5:	8b 08                	mov    ecx,DWORD PTR [rax]
    16a7:	85 c9                	test   ecx,ecx
    16a9:	74 50                	je     16fb <_Z17hashMapAddElementP7HashMap8string_t+0x21b>
    16ab:	0f 1f 44 00 00       	nop    DWORD PTR [rax+rax*1+0x0]
    16b0:	48 c1 e1 05          	shl    rcx,0x5
    16b4:	31 d2                	xor    edx,edx
    16b6:	48 01 c8             	add    rax,rcx
    16b9:	49 89 cf             	mov    r15,rcx
    16bc:	c5 fa 7e 40 18       	vmovq  xmm0,QWORD PTR [rax+0x18]
    16c1:	48 8b 70 10          	mov    rsi,QWORD PTR [rax+0x10]
    16c5:	c5 f9 7e c0          	vmovd  eax,xmm0
    16c9:	c4 e1 f9 7e c7       	vmovq  rdi,xmm0
    16ce:	f7 f3                	div    ebx
    16d0:	48 8d 04 52          	lea    rax,[rdx+rdx*2]
    16d4:	48 89 fa             	mov    rdx,rdi
    16d7:	49 8d 04 c6          	lea    rax,[r14+rax*8]
    16db:	48 89 c7             	mov    rdi,rax
    16de:	e8 4d 08 00 00       	call   1f30 <_Z12pushListElemP4List8string_t>
    16e3:	49 8b 3c 24          	mov    rdi,QWORD PTR [r12]
    16e7:	4a 8b 04 2f          	mov    rax,QWORD PTR [rdi+r13*1]
    16eb:	48 89 fa             	mov    rdx,rdi
    16ee:	42 8b 0c 38          	mov    ecx,DWORD PTR [rax+r15*1]
    16f2:	85 c9                	test   ecx,ecx
    16f4:	75 ba                	jne    16b0 <_Z17hashMapAddElementP7HashMap8string_t+0x1d0>
    16f6:	45 8b 44 24 08       	mov    r8d,DWORD PTR [r12+0x8]
    16fb:	48 83 44 24 18 01    	add    QWORD PTR [rsp+0x18],0x1
    1701:	48 8b 44 24 18       	mov    rax,QWORD PTR [rsp+0x18]
    1706:	44 39 c0             	cmp    eax,r8d
    1709:	72 85                	jb     1690 <_Z17hashMapAddElementP7HashMap8string_t+0x1b0>
    170b:	45 85 c0             	test   r8d,r8d
    170e:	74 29                	je     1739 <_Z17hashMapAddElementP7HashMap8string_t+0x259>
    1710:	45 31 ed             	xor    r13d,r13d
    1713:	eb 07                	jmp    171c <_Z17hashMapAddElementP7HashMap8string_t+0x23c>
    1715:	0f 1f 00             	nop    DWORD PTR [rax]
    1718:	49 8b 14 24          	mov    rdx,QWORD PTR [r12]
    171c:	4b 8d 44 6d 00       	lea    rax,[r13+r13*2+0x0]
    1721:	49 83 c5 01          	add    r13,0x1
    1725:	48 8d 3c c2          	lea    rdi,[rdx+rax*8]
    1729:	e8 e2 0a 00 00       	call   2210 <_Z8listDtorP4List>
    172e:	45 3b 6c 24 08       	cmp    r13d,DWORD PTR [r12+0x8]
    1733:	72 e3                	jb     1718 <_Z17hashMapAddElementP7HashMap8string_t+0x238>
    1735:	49 8b 3c 24          	mov    rdi,QWORD PTR [r12]
    1739:	e8 c2 f9 ff ff       	call   1100 <free@plt>
    173e:	c5 fa 10 64 24 10    	vmovss xmm4,DWORD PTR [rsp+0x10]
    1744:	48 8b 44 24 08       	mov    rax,QWORD PTR [rsp+0x8]
    1749:	4d 89 34 24          	mov    QWORD PTR [r12],r14
    174d:	41 89 5c 24 08       	mov    DWORD PTR [r12+0x8],ebx
    1752:	49 89 44 24 10       	mov    QWORD PTR [r12+0x10],rax
    1757:	c4 c1 7a 11 64 24 0c 	vmovss DWORD PTR [r12+0xc],xmm4
    175e:	e9 11 fe ff ff       	jmp    1574 <_Z17hashMapAddElementP7HashMap8string_t+0x94>
    1763:	48 8d 0d ce 2b 00 00 	lea    rcx,[rip+0x2bce]        # 4338 <_IO_stdin_used+0x338>
    176a:	ba 3e 00 00 00       	mov    edx,0x3e
    176f:	48 8d 35 a2 2b 00 00 	lea    rsi,[rip+0x2ba2]        # 4318 <_IO_stdin_used+0x318>
    1776:	48 8d 3d a5 28 00 00 	lea    rdi,[rip+0x28a5]        # 4022 <_IO_stdin_used+0x22>
    177d:	e8 ee f8 ff ff       	call   1070 <__assert_fail@plt>
    1782:	e8 59 f9 ff ff       	call   10e0 <__stack_chk_fail@plt>
    1787:	66 0f 1f 84 00 00 00 	nop    WORD PTR [rax+rax*1+0x0]
    178e:	00 00 

0000000000001790 <_Z17hashMapPopElementP7HashMap8string_t>:
    1790:	f3 0f 1e fa          	endbr64
    1794:	41 55                	push   r13
    1796:	41 54                	push   r12
    1798:	55                   	push   rbp
    1799:	53                   	push   rbx
    179a:	48 83 ec 08          	sub    rsp,0x8
    179e:	48 85 ff             	test   rdi,rdi
    17a1:	0f 84 93 00 00 00    	je     183a <_Z17hashMapPopElementP7HashMap8string_t+0xaa>
    17a7:	48 89 fb             	mov    rbx,rdi
    17aa:	48 89 d5             	mov    rbp,rdx
    17ad:	48 89 f7             	mov    rdi,rsi
    17b0:	49 89 f5             	mov    r13,rsi
    17b3:	48 89 d6             	mov    rsi,rdx
    17b6:	ff 53 10             	call   QWORD PTR [rbx+0x10]
    17b9:	31 d2                	xor    edx,edx
    17bb:	4c 89 ee             	mov    rsi,r13
    17be:	89 c1                	mov    ecx,eax
    17c0:	89 c8                	mov    eax,ecx
    17c2:	f7 73 08             	div    DWORD PTR [rbx+0x8]
    17c5:	89 d0                	mov    eax,edx
    17c7:	48 8d 14 40          	lea    rdx,[rax+rax*2]
    17cb:	49 89 c4             	mov    r12,rax
    17ce:	48 8b 03             	mov    rax,QWORD PTR [rbx]
    17d1:	48 8d 3c d0          	lea    rdi,[rax+rdx*8]
    17d5:	48 89 ea             	mov    rdx,rbp
    17d8:	48 b8 00 00 00 00 ff 	movabs rax,0xffffffff00000000
    17df:	ff ff ff 
    17e2:	48 21 c2             	and    rdx,rax
    17e5:	48 09 ca             	or     rdx,rcx
    17e8:	e8 c3 08 00 00       	call   20b0 <_Z11popListElemP4List8string_t>
    17ed:	85 c0                	test   eax,eax
    17ef:	74 37                	je     1828 <_Z17hashMapPopElementP7HashMap8string_t+0x98>
    17f1:	8b 43 08             	mov    eax,DWORD PTR [rbx+0x8]
    17f4:	c5 f8 57 c0          	vxorps xmm0,xmm0,xmm0
    17f8:	c4 e1 fa 2a c0       	vcvtsi2ss xmm0,xmm0,rax
    17fd:	c5 fa 59 4b 0c       	vmulss xmm1,xmm0,DWORD PTR [rbx+0xc]
    1802:	44 89 e0             	mov    eax,r12d
    1805:	c5 f2 5c 0d f7 27 00 	vsubss xmm1,xmm1,DWORD PTR [rip+0x27f7]        # 4004 <_IO_stdin_used+0x4>
    180c:	00 
    180d:	c5 f2 5e c0          	vdivss xmm0,xmm1,xmm0
    1811:	c5 fa 11 43 0c       	vmovss DWORD PTR [rbx+0xc],xmm0
    1816:	48 83 c4 08          	add    rsp,0x8
    181a:	5b                   	pop    rbx
    181b:	5d                   	pop    rbp
    181c:	41 5c                	pop    r12
    181e:	41 5d                	pop    r13
    1820:	c3                   	ret
    1821:	0f 1f 80 00 00 00 00 	nop    DWORD PTR [rax+0x0]
    1828:	44 8b 63 08          	mov    r12d,DWORD PTR [rbx+0x8]
    182c:	48 83 c4 08          	add    rsp,0x8
    1830:	5b                   	pop    rbx
    1831:	5d                   	pop    rbp
    1832:	44 89 e0             	mov    eax,r12d
    1835:	41 5c                	pop    r12
    1837:	41 5d                	pop    r13
    1839:	c3                   	ret
    183a:	48 8d 0d 27 2b 00 00 	lea    rcx,[rip+0x2b27]        # 4368 <_IO_stdin_used+0x368>
    1841:	ba 4f 00 00 00       	mov    edx,0x4f
    1846:	48 8d 35 cb 2a 00 00 	lea    rsi,[rip+0x2acb]        # 4318 <_IO_stdin_used+0x318>
    184d:	48 8d 3d ce 27 00 00 	lea    rdi,[rip+0x27ce]        # 4022 <_IO_stdin_used+0x22>
    1854:	e8 17 f8 ff ff       	call   1070 <__assert_fail@plt>
    1859:	0f 1f 80 00 00 00 00 	nop    DWORD PTR [rax+0x0]

0000000000001860 <_Z20hashMapSearchElementP7HashMap8string_t>:
    1860:	f3 0f 1e fa          	endbr64
    1864:	41 54                	push   r12
    1866:	55                   	push   rbp
    1867:	53                   	push   rbx
    1868:	48 85 ff             	test   rdi,rdi
    186b:	74 37                	je     18a4 <_Z20hashMapSearchElementP7HashMap8string_t+0x44>
    186d:	48 89 fb             	mov    rbx,rdi
    1870:	48 89 d5             	mov    rbp,rdx
    1873:	49 89 f4             	mov    r12,rsi
    1876:	48 89 f7             	mov    rdi,rsi
    1879:	48 89 d6             	mov    rsi,rdx
    187c:	ff 53 10             	call   QWORD PTR [rbx+0x10]
    187f:	31 d2                	xor    edx,edx
    1881:	4c 89 e6             	mov    rsi,r12
    1884:	f7 73 08             	div    DWORD PTR [rbx+0x8]
    1887:	48 8b 03             	mov    rax,QWORD PTR [rbx]
    188a:	48 8d 14 52          	lea    rdx,[rdx+rdx*2]
    188e:	48 8d 3c d0          	lea    rdi,[rax+rdx*8]
    1892:	48 89 ea             	mov    rdx,rbp
    1895:	e8 f6 08 00 00       	call   2190 <_Z13searchElementP4List8string_t>
    189a:	5b                   	pop    rbx
    189b:	5d                   	pop    rbp
    189c:	85 c0                	test   eax,eax
    189e:	41 5c                	pop    r12
    18a0:	0f 95 c0             	setne  al
    18a3:	c3                   	ret
    18a4:	48 8d 0d ed 2a 00 00 	lea    rcx,[rip+0x2aed]        # 4398 <_IO_stdin_used+0x398>
    18ab:	ba 5c 00 00 00       	mov    edx,0x5c
    18b0:	48 8d 35 61 2a 00 00 	lea    rsi,[rip+0x2a61]        # 4318 <_IO_stdin_used+0x318>
    18b7:	48 8d 3d 64 27 00 00 	lea    rdi,[rip+0x2764]        # 4022 <_IO_stdin_used+0x22>
    18be:	e8 ad f7 ff ff       	call   1070 <__assert_fail@plt>
    18c3:	66 66 2e 0f 1f 84 00 	data16 cs nop WORD PTR [rax+rax*1+0x0]
    18ca:	00 00 00 00 
    18ce:	66 90                	xchg   ax,ax

00000000000018d0 <_Z11hashMapDtorP7HashMap>:
    18d0:	f3 0f 1e fa          	endbr64
    18d4:	55                   	push   rbp
    18d5:	53                   	push   rbx
    18d6:	48 83 ec 08          	sub    rsp,0x8
    18da:	48 85 ff             	test   rdi,rdi
    18dd:	74 3a                	je     1919 <_Z11hashMapDtorP7HashMap+0x49>
    18df:	8b 47 08             	mov    eax,DWORD PTR [rdi+0x8]
    18e2:	48 89 fd             	mov    rbp,rdi
    18e5:	31 db                	xor    ebx,ebx
    18e7:	85 c0                	test   eax,eax
    18e9:	74 1f                	je     190a <_Z11hashMapDtorP7HashMap+0x3a>
    18eb:	0f 1f 44 00 00       	nop    DWORD PTR [rax+rax*1+0x0]
    18f0:	48 8b 45 00          	mov    rax,QWORD PTR [rbp+0x0]
    18f4:	48 8d 14 5b          	lea    rdx,[rbx+rbx*2]
    18f8:	48 83 c3 01          	add    rbx,0x1
    18fc:	48 8d 3c d0          	lea    rdi,[rax+rdx*8]
    1900:	e8 0b 09 00 00       	call   2210 <_Z8listDtorP4List>
    1905:	3b 5d 08             	cmp    ebx,DWORD PTR [rbp+0x8]
    1908:	72 e6                	jb     18f0 <_Z11hashMapDtorP7HashMap+0x20>
    190a:	48 8b 7d 00          	mov    rdi,QWORD PTR [rbp+0x0]
    190e:	48 83 c4 08          	add    rsp,0x8
    1912:	5b                   	pop    rbx
    1913:	5d                   	pop    rbp
    1914:	e9 e7 f7 ff ff       	jmp    1100 <free@plt>
    1919:	48 8d 0d 0a 27 00 00 	lea    rcx,[rip+0x270a]        # 402a <_IO_stdin_used+0x2a>
    1920:	ba 91 00 00 00       	mov    edx,0x91
    1925:	48 8d 35 ec 29 00 00 	lea    rsi,[rip+0x29ec]        # 4318 <_IO_stdin_used+0x318>
    192c:	48 8d 3d ef 26 00 00 	lea    rdi,[rip+0x26ef]        # 4022 <_IO_stdin_used+0x22>
    1933:	e8 38 f7 ff ff       	call   1070 <__assert_fail@plt>
    1938:	0f 1f 84 00 00 00 00 	nop    DWORD PTR [rax+rax*1+0x0]
    193f:	00 

0000000000001940 <_Z17hashMapDebugPrintP7HashMap>:
    1940:	f3 0f 1e fa          	endbr64
    1944:	41 55                	push   r13
    1946:	4c 8d 2d f8 26 00 00 	lea    r13,[rip+0x26f8]        # 4045 <_IO_stdin_used+0x45>
    194d:	41 54                	push   r12
    194f:	55                   	push   rbp
    1950:	48 89 fd             	mov    rbp,rdi
    1953:	4c 89 ef             	mov    rdi,r13
    1956:	53                   	push   rbx
    1957:	48 83 ec 08          	sub    rsp,0x8
    195b:	e8 00 f8 ff ff       	call   1160 <puts@plt>
    1960:	48 85 ed             	test   rbp,rbp
    1963:	0f 84 87 00 00 00    	je     19f0 <_Z17hashMapDebugPrintP7HashMap+0xb0>
    1969:	8b 55 08             	mov    edx,DWORD PTR [rbp+0x8]
    196c:	48 8d 35 f2 26 00 00 	lea    rsi,[rip+0x26f2]        # 4065 <_IO_stdin_used+0x65>
    1973:	bf 02 00 00 00       	mov    edi,0x2
    1978:	31 c0                	xor    eax,eax
    197a:	e8 b1 f6 ff ff       	call   1030 <__printf_chk@plt>
    197f:	c5 f8 57 c0          	vxorps xmm0,xmm0,xmm0
    1983:	bf 02 00 00 00       	mov    edi,0x2
    1988:	48 8d 35 e7 26 00 00 	lea    rsi,[rip+0x26e7]        # 4076 <_IO_stdin_used+0x76>
    198f:	b8 01 00 00 00       	mov    eax,0x1
    1994:	c5 fa 5a 45 0c       	vcvtss2sd xmm0,xmm0,DWORD PTR [rbp+0xc]
    1999:	e8 92 f6 ff ff       	call   1030 <__printf_chk@plt>
    199e:	8b 45 08             	mov    eax,DWORD PTR [rbp+0x8]
    19a1:	85 c0                	test   eax,eax
    19a3:	74 36                	je     19db <_Z17hashMapDebugPrintP7HashMap+0x9b>
    19a5:	31 db                	xor    ebx,ebx
    19a7:	4c 8d 25 d9 26 00 00 	lea    r12,[rip+0x26d9]        # 4087 <_IO_stdin_used+0x87>
    19ae:	66 90                	xchg   ax,ax
    19b0:	89 da                	mov    edx,ebx
    19b2:	4c 89 e6             	mov    rsi,r12
    19b5:	bf 02 00 00 00       	mov    edi,0x2
    19ba:	31 c0                	xor    eax,eax
    19bc:	e8 6f f6 ff ff       	call   1030 <__printf_chk@plt>
    19c1:	48 8b 45 00          	mov    rax,QWORD PTR [rbp+0x0]
    19c5:	48 8d 14 5b          	lea    rdx,[rbx+rbx*2]
    19c9:	48 83 c3 01          	add    rbx,0x1
    19cd:	48 8d 3c d0          	lea    rdi,[rax+rdx*8]
    19d1:	e8 7a 08 00 00       	call   2250 <_Z10debugPrintP4List>
    19d6:	3b 5d 08             	cmp    ebx,DWORD PTR [rbp+0x8]
    19d9:	72 d5                	jb     19b0 <_Z17hashMapDebugPrintP7HashMap+0x70>
    19db:	48 83 c4 08          	add    rsp,0x8
    19df:	4c 89 ef             	mov    rdi,r13
    19e2:	5b                   	pop    rbx
    19e3:	5d                   	pop    rbp
    19e4:	41 5c                	pop    r12
    19e6:	41 5d                	pop    r13
    19e8:	e9 73 f7 ff ff       	jmp    1160 <puts@plt>
    19ed:	0f 1f 00             	nop    DWORD PTR [rax]
    19f0:	48 8d 3d 69 26 00 00 	lea    rdi,[rip+0x2669]        # 4060 <_IO_stdin_used+0x60>
    19f7:	e8 64 f7 ff ff       	call   1160 <puts@plt>
    19fc:	eb dd                	jmp    19db <_Z17hashMapDebugPrintP7HashMap+0x9b>
    19fe:	66 90                	xchg   ax,ax

0000000000001a00 <_Z15crc32HashString8string_t>:
    1a00:	f3 0f 1e fa          	endbr64
    1a04:	48 c1 ee 20          	shr    rsi,0x20
    1a08:	83 fe 01             	cmp    esi,0x1
    1a0b:	0f 8e 05 01 00 00    	jle    1b16 <_Z15crc32HashString8string_t+0x116>
    1a11:	83 ee 02             	sub    esi,0x2
    1a14:	53                   	push   rbx
    1a15:	49 89 f9             	mov    r9,rdi
    1a18:	45 31 d2             	xor    r10d,r10d
    1a1b:	c1 ee 02             	shr    esi,0x2
    1a1e:	41 b8 1f 00 00 00    	mov    r8d,0x1f
    1a24:	8d 04 b5 00 00 00 00 	lea    eax,[rsi*4+0x0]
    1a2b:	48 be 00 00 00 00 00 	movabs rsi,0x8000000000000000
    1a32:	00 00 80 
    1a35:	4c 8d 5c 07 04       	lea    r11,[rdi+rax*1+0x4]
    1a3a:	48 bf 41 6f dc 1e 01 	movabs rdi,0x11edc6f41
    1a41:	00 00 00 
    1a44:	0f 1f 40 00          	nop    DWORD PTR [rax+0x0]
    1a48:	41 8b 11             	mov    edx,DWORD PTR [r9]
    1a4b:	8d 04 12             	lea    eax,[rdx+rdx*1]
    1a4e:	d1 ea                	shr    edx,1
    1a50:	81 e2 55 55 55 55    	and    edx,0x55555555
    1a56:	25 aa aa aa aa       	and    eax,0xaaaaaaaa
    1a5b:	09 d0                	or     eax,edx
    1a5d:	89 c2                	mov    edx,eax
    1a5f:	c1 e0 02             	shl    eax,0x2
    1a62:	c1 ea 02             	shr    edx,0x2
    1a65:	25 cc cc cc cc       	and    eax,0xcccccccc
    1a6a:	81 e2 33 33 33 33    	and    edx,0x33333333
    1a70:	09 d0                	or     eax,edx
    1a72:	89 c1                	mov    ecx,eax
    1a74:	c1 e0 04             	shl    eax,0x4
    1a77:	89 c2                	mov    edx,eax
    1a79:	c1 e9 04             	shr    ecx,0x4
    1a7c:	31 c0                	xor    eax,eax
    1a7e:	81 e1 0f 0f 0f 0f    	and    ecx,0xf0f0f0f
    1a84:	81 e2 f0 f0 f0 f0    	and    edx,0xf0f0f0f0
    1a8a:	09 ca                	or     edx,ecx
    1a8c:	0f ca                	bswap  edx
    1a8e:	81 f2 88 88 88 88    	xor    edx,0x88888888
    1a94:	48 c1 e2 20          	shl    rdx,0x20
    1a98:	0f 1f 84 00 00 00 00 	nop    DWORD PTR [rax+rax*1+0x0]
    1a9f:	00 
    1aa0:	48 89 f3             	mov    rbx,rsi
    1aa3:	89 c1                	mov    ecx,eax
    1aa5:	48 d3 eb             	shr    rbx,cl
    1aa8:	48 85 d3             	test   rbx,rdx
    1aab:	74 0e                	je     1abb <_Z15crc32HashString8string_t+0xbb>
    1aad:	44 89 c1             	mov    ecx,r8d
    1ab0:	48 89 fb             	mov    rbx,rdi
    1ab3:	29 c1                	sub    ecx,eax
    1ab5:	48 d3 e3             	shl    rbx,cl
    1ab8:	48 31 da             	xor    rdx,rbx
    1abb:	83 c0 01             	add    eax,0x1
    1abe:	83 f8 20             	cmp    eax,0x20
    1ac1:	75 dd                	jne    1aa0 <_Z15crc32HashString8string_t+0xa0>
    1ac3:	8d 04 12             	lea    eax,[rdx+rdx*1]
    1ac6:	d1 ea                	shr    edx,1
    1ac8:	49 83 c1 04          	add    r9,0x4
    1acc:	81 e2 55 55 55 55    	and    edx,0x55555555
    1ad2:	25 aa aa aa aa       	and    eax,0xaaaaaaaa
    1ad7:	09 d0                	or     eax,edx
    1ad9:	89 c2                	mov    edx,eax
    1adb:	c1 e0 02             	shl    eax,0x2
    1ade:	c1 ea 02             	shr    edx,0x2
    1ae1:	25 cc cc cc cc       	and    eax,0xcccccccc
    1ae6:	81 e2 33 33 33 33    	and    edx,0x33333333
    1aec:	09 d0                	or     eax,edx
    1aee:	89 c2                	mov    edx,eax
    1af0:	c1 e0 04             	shl    eax,0x4
    1af3:	c1 ea 04             	shr    edx,0x4
    1af6:	25 f0 f0 f0 f0       	and    eax,0xf0f0f0f0
    1afb:	81 e2 0f 0f 0f 0f    	and    edx,0xf0f0f0f
    1b01:	09 d0                	or     eax,edx
    1b03:	0f c8                	bswap  eax
    1b05:	41 01 c2             	add    r10d,eax
    1b08:	4d 39 cb             	cmp    r11,r9
    1b0b:	0f 85 37 ff ff ff    	jne    1a48 <_Z15crc32HashString8string_t+0x48>
    1b11:	44 89 d0             	mov    eax,r10d
    1b14:	5b                   	pop    rbx
    1b15:	c3                   	ret
    1b16:	31 c0                	xor    eax,eax
    1b18:	c3                   	ret
    1b19:	0f 1f 80 00 00 00 00 	nop    DWORD PTR [rax+0x0]

0000000000001b20 <_Z19_mm_crc32HashString8string_t>:
    1b20:	f3 0f 1e fa          	endbr64
    1b24:	48 c1 ee 20          	shr    rsi,0x20
    1b28:	83 fe 01             	cmp    esi,0x1
    1b2b:	7e 3b                	jle    1b68 <_Z19_mm_crc32HashString8string_t+0x48>
    1b2d:	83 ee 02             	sub    esi,0x2
    1b30:	b9 11 11 11 11       	mov    ecx,0x11111111
    1b35:	c1 ee 02             	shr    esi,0x2
    1b38:	8d 04 b5 00 00 00 00 	lea    eax,[rsi*4+0x0]
    1b3f:	48 8d 74 07 04       	lea    rsi,[rdi+rax*1+0x4]
    1b44:	31 c0                	xor    eax,eax
    1b46:	66 2e 0f 1f 84 00 00 	cs nop WORD PTR [rax+rax*1+0x0]
    1b4d:	00 00 00 
    1b50:	89 ca                	mov    edx,ecx
    1b52:	48 83 c7 04          	add    rdi,0x4
    1b56:	f2 0f 38 f1 57 fc    	crc32  edx,DWORD PTR [rdi-0x4]
    1b5c:	01 d0                	add    eax,edx
    1b5e:	48 39 f7             	cmp    rdi,rsi
    1b61:	75 ed                	jne    1b50 <_Z19_mm_crc32HashString8string_t+0x30>
    1b63:	c3                   	ret
    1b64:	0f 1f 40 00          	nop    DWORD PTR [rax+0x0]
    1b68:	31 c0                	xor    eax,eax
    1b6a:	c3                   	ret
    1b6b:	0f 1f 44 00 00       	nop    DWORD PTR [rax+rax*1+0x0]

0000000000001b70 <_Z25_mm_crc32UnrollHashString8string_t>:
    1b70:	f3 0f 1e fa          	endbr64
    1b74:	ba 11 11 11 21       	mov    edx,0x21111111
    1b79:	89 d0                	mov    eax,edx
    1b7b:	89 d6                	mov    esi,edx
    1b7d:	89 d1                	mov    ecx,edx
    1b7f:	f2 48 0f 38 f1 07    	crc32  rax,QWORD PTR [rdi]
    1b85:	f2 48 0f 38 f1 77 08 	crc32  rsi,QWORD PTR [rdi+0x8]
    1b8c:	f2 48 0f 38 f1 4f 10 	crc32  rcx,QWORD PTR [rdi+0x10]
    1b93:	01 f0                	add    eax,esi
    1b95:	f2 48 0f 38 f1 57 18 	crc32  rdx,QWORD PTR [rdi+0x18]
    1b9c:	01 c8                	add    eax,ecx
    1b9e:	01 d0                	add    eax,edx
    1ba0:	c3                   	ret
    1ba1:	66 66 2e 0f 1f 84 00 	data16 cs nop WORD PTR [rax+rax*1+0x0]
    1ba8:	00 00 00 00 
    1bac:	0f 1f 40 00          	nop    DWORD PTR [rax+0x0]

0000000000001bb0 <_Z17murmur2HashString8string_t>:
    1bb0:	f3 0f 1e fa          	endbr64
    1bb4:	48 c1 ee 20          	shr    rsi,0x20
    1bb8:	48 89 f9             	mov    rcx,rdi
    1bbb:	89 f0                	mov    eax,esi
    1bbd:	83 fe 03             	cmp    esi,0x3
    1bc0:	0f 86 8a 00 00 00    	jbe    1c50 <_Z17murmur2HashString8string_t+0xa0>
    1bc6:	8d 46 fc             	lea    eax,[rsi-0x4]
    1bc9:	89 f2                	mov    edx,esi
    1bcb:	c1 e8 02             	shr    eax,0x2
    1bce:	83 c0 01             	add    eax,0x1
    1bd1:	48 8d 3c 87          	lea    rdi,[rdi+rax*4]
    1bd5:	0f 1f 00             	nop    DWORD PTR [rax]
    1bd8:	44 69 01 95 e9 d1 5b 	imul   r8d,DWORD PTR [rcx],0x5bd1e995
    1bdf:	48 83 c1 04          	add    rcx,0x4
    1be3:	69 d2 95 e9 d1 5b    	imul   edx,edx,0x5bd1e995
    1be9:	44 89 c0             	mov    eax,r8d
    1bec:	c1 e8 18             	shr    eax,0x18
    1bef:	44 31 c0             	xor    eax,r8d
    1bf2:	69 c0 95 e9 d1 5b    	imul   eax,eax,0x5bd1e995
    1bf8:	31 c2                	xor    edx,eax
    1bfa:	48 39 cf             	cmp    rdi,rcx
    1bfd:	75 d9                	jne    1bd8 <_Z17murmur2HashString8string_t+0x28>
    1bff:	89 f0                	mov    eax,esi
    1c01:	83 e0 03             	and    eax,0x3
    1c04:	83 f8 02             	cmp    eax,0x2
    1c07:	74 30                	je     1c39 <_Z17murmur2HashString8string_t+0x89>
    1c09:	83 f8 03             	cmp    eax,0x3
    1c0c:	74 22                	je     1c30 <_Z17murmur2HashString8string_t+0x80>
    1c0e:	83 f8 01             	cmp    eax,0x1
    1c11:	74 2f                	je     1c42 <_Z17murmur2HashString8string_t+0x92>
    1c13:	89 d0                	mov    eax,edx
    1c15:	c1 e8 0d             	shr    eax,0xd
    1c18:	31 c2                	xor    edx,eax
    1c1a:	69 d2 95 e9 d1 5b    	imul   edx,edx,0x5bd1e995
    1c20:	89 d0                	mov    eax,edx
    1c22:	c1 e8 0f             	shr    eax,0xf
    1c25:	31 d0                	xor    eax,edx
    1c27:	c3                   	ret
    1c28:	0f 1f 84 00 00 00 00 	nop    DWORD PTR [rax+rax*1+0x0]
    1c2f:	00 
    1c30:	0f b6 47 02          	movzx  eax,BYTE PTR [rdi+0x2]
    1c34:	c1 e0 10             	shl    eax,0x10
    1c37:	31 c2                	xor    edx,eax
    1c39:	0f b6 47 01          	movzx  eax,BYTE PTR [rdi+0x1]
    1c3d:	c1 e0 08             	shl    eax,0x8
    1c40:	31 c2                	xor    edx,eax
    1c42:	0f b6 07             	movzx  eax,BYTE PTR [rdi]
    1c45:	31 c2                	xor    edx,eax
    1c47:	69 d2 95 e9 d1 5b    	imul   edx,edx,0x5bd1e995
    1c4d:	eb c4                	jmp    1c13 <_Z17murmur2HashString8string_t+0x63>
    1c4f:	90                   	nop
    1c50:	89 f2                	mov    edx,esi
    1c52:	eb b0                	jmp    1c04 <_Z17murmur2HashString8string_t+0x54>
    1c54:	66 66 2e 0f 1f 84 00 	data16 cs nop WORD PTR [rax+rax*1+0x0]
    1c5b:	00 00 00 00 
    1c5f:	90                   	nop

0000000000001c60 <_Z13sumHashString8string_t>:
    1c60:	f3 0f 1e fa          	endbr64
    1c64:	48 c1 ee 20          	shr    rsi,0x20
    1c68:	41 89 f0             	mov    r8d,esi
    1c6b:	44 8d 4e fd          	lea    r9d,[rsi-0x3]
    1c6f:	83 fe 03             	cmp    esi,0x3
    1c72:	0f 8e 40 01 00 00    	jle    1db8 <_Z13sumHashString8string_t+0x158>
    1c78:	8d 46 fc             	lea    eax,[rsi-0x4]
    1c7b:	89 c2                	mov    edx,eax
    1c7d:	c1 ea 02             	shr    edx,0x2
    1c80:	83 c2 01             	add    edx,0x1
    1c83:	83 f8 1b             	cmp    eax,0x1b
    1c86:	0f 86 39 01 00 00    	jbe    1dc5 <_Z13sumHashString8string_t+0x165>
    1c8c:	89 d1                	mov    ecx,edx
    1c8e:	48 89 f8             	mov    rax,rdi
    1c91:	c5 f9 ef c0          	vpxor  xmm0,xmm0,xmm0
    1c95:	c1 e9 03             	shr    ecx,0x3
    1c98:	48 c1 e1 05          	shl    rcx,0x5
    1c9c:	48 01 f9             	add    rcx,rdi
    1c9f:	90                   	nop
    1ca0:	c5 fd fe 00          	vpaddd ymm0,ymm0,YMMWORD PTR [rax]
    1ca4:	48 83 c0 20          	add    rax,0x20
    1ca8:	48 39 c8             	cmp    rax,rcx
    1cab:	75 f3                	jne    1ca0 <_Z13sumHashString8string_t+0x40>
    1cad:	c4 e3 7d 39 c1 01    	vextracti128 xmm1,ymm0,0x1
    1cb3:	89 d1                	mov    ecx,edx
    1cb5:	c5 f1 fe c0          	vpaddd xmm0,xmm1,xmm0
    1cb9:	83 e1 f8             	and    ecx,0xfffffff8
    1cbc:	c5 f1 73 d8 08       	vpsrldq xmm1,xmm0,0x8
    1cc1:	c1 e1 02             	shl    ecx,0x2
    1cc4:	c5 f9 fe c1          	vpaddd xmm0,xmm0,xmm1
    1cc8:	c5 f1 73 d8 04       	vpsrldq xmm1,xmm0,0x4
    1ccd:	c5 f9 fe c1          	vpaddd xmm0,xmm0,xmm1
    1cd1:	c5 f9 7e c0          	vmovd  eax,xmm0
    1cd5:	f6 c2 07             	test   dl,0x7
    1cd8:	0f 84 e2 00 00 00    	je     1dc0 <_Z13sumHashString8string_t+0x160>
    1cde:	c5 f8 77             	vzeroupper
    1ce1:	4c 63 d1             	movsxd r10,ecx
    1ce4:	42 03 04 17          	add    eax,DWORD PTR [rdi+r10*1]
    1ce8:	44 8d 51 04          	lea    r10d,[rcx+0x4]
    1cec:	45 39 d1             	cmp    r9d,r10d
    1cef:	7e 55                	jle    1d46 <_Z13sumHashString8string_t+0xe6>
    1cf1:	4d 63 d2             	movsxd r10,r10d
    1cf4:	42 03 04 17          	add    eax,DWORD PTR [rdi+r10*1]
    1cf8:	44 8d 51 08          	lea    r10d,[rcx+0x8]
    1cfc:	45 39 d1             	cmp    r9d,r10d
    1cff:	7e 45                	jle    1d46 <_Z13sumHashString8string_t+0xe6>
    1d01:	4d 63 d2             	movsxd r10,r10d
    1d04:	42 03 04 17          	add    eax,DWORD PTR [rdi+r10*1]
    1d08:	44 8d 51 0c          	lea    r10d,[rcx+0xc]
    1d0c:	45 39 d1             	cmp    r9d,r10d
    1d0f:	7e 35                	jle    1d46 <_Z13sumHashString8string_t+0xe6>
    1d11:	4d 63 d2             	movsxd r10,r10d
    1d14:	42 03 04 17          	add    eax,DWORD PTR [rdi+r10*1]
    1d18:	44 8d 51 10          	lea    r10d,[rcx+0x10]
    1d1c:	45 39 d1             	cmp    r9d,r10d
    1d1f:	7e 25                	jle    1d46 <_Z13sumHashString8string_t+0xe6>
    1d21:	4d 63 d2             	movsxd r10,r10d
    1d24:	42 03 04 17          	add    eax,DWORD PTR [rdi+r10*1]
    1d28:	44 8d 51 14          	lea    r10d,[rcx+0x14]
    1d2c:	45 39 d1             	cmp    r9d,r10d
    1d2f:	7e 15                	jle    1d46 <_Z13sumHashString8string_t+0xe6>
    1d31:	4d 63 d2             	movsxd r10,r10d
    1d34:	83 c1 18             	add    ecx,0x18
    1d37:	42 03 04 17          	add    eax,DWORD PTR [rdi+r10*1]
    1d3b:	41 39 c9             	cmp    r9d,ecx
    1d3e:	7e 06                	jle    1d46 <_Z13sumHashString8string_t+0xe6>
    1d40:	48 63 c9             	movsxd rcx,ecx
    1d43:	03 04 0f             	add    eax,DWORD PTR [rdi+rcx*1]
    1d46:	c1 e2 02             	shl    edx,0x2
    1d49:	89 d1                	mov    ecx,edx
    1d4b:	41 89 f1             	mov    r9d,esi
    1d4e:	41 83 e1 03          	and    r9d,0x3
    1d52:	39 f1                	cmp    ecx,esi
    1d54:	73 5a                	jae    1db0 <_Z13sumHashString8string_t+0x150>
    1d56:	48 63 d2             	movsxd rdx,edx
    1d59:	31 c9                	xor    ecx,ecx
    1d5b:	0f 1f 44 00 00       	nop    DWORD PTR [rax+rax*1+0x0]
    1d60:	0f be 34 17          	movsx  esi,BYTE PTR [rdi+rdx*1]
    1d64:	c1 e1 08             	shl    ecx,0x8
    1d67:	48 83 c2 01          	add    rdx,0x1
    1d6b:	01 f1                	add    ecx,esi
    1d6d:	44 39 c2             	cmp    edx,r8d
    1d70:	72 ee                	jb     1d60 <_Z13sumHashString8string_t+0x100>
    1d72:	41 83 f9 03          	cmp    r9d,0x3
    1d76:	74 18                	je     1d90 <_Z13sumHashString8string_t+0x130>
    1d78:	41 83 f9 02          	cmp    r9d,0x2
    1d7c:	74 22                	je     1da0 <_Z13sumHashString8string_t+0x140>
    1d7e:	31 d2                	xor    edx,edx
    1d80:	c1 e1 18             	shl    ecx,0x18
    1d83:	41 83 f9 01          	cmp    r9d,0x1
    1d87:	0f 45 ca             	cmovne ecx,edx
    1d8a:	01 c8                	add    eax,ecx
    1d8c:	c3                   	ret
    1d8d:	0f 1f 00             	nop    DWORD PTR [rax]
    1d90:	c1 e1 08             	shl    ecx,0x8
    1d93:	01 c8                	add    eax,ecx
    1d95:	c3                   	ret
    1d96:	66 2e 0f 1f 84 00 00 	cs nop WORD PTR [rax+rax*1+0x0]
    1d9d:	00 00 00 
    1da0:	c1 e1 10             	shl    ecx,0x10
    1da3:	01 c8                	add    eax,ecx
    1da5:	c3                   	ret
    1da6:	66 2e 0f 1f 84 00 00 	cs nop WORD PTR [rax+rax*1+0x0]
    1dad:	00 00 00 
    1db0:	31 c9                	xor    ecx,ecx
    1db2:	eb be                	jmp    1d72 <_Z13sumHashString8string_t+0x112>
    1db4:	0f 1f 40 00          	nop    DWORD PTR [rax+0x0]
    1db8:	31 c9                	xor    ecx,ecx
    1dba:	31 d2                	xor    edx,edx
    1dbc:	31 c0                	xor    eax,eax
    1dbe:	eb 8b                	jmp    1d4b <_Z13sumHashString8string_t+0xeb>
    1dc0:	c5 f8 77             	vzeroupper
    1dc3:	eb 81                	jmp    1d46 <_Z13sumHashString8string_t+0xe6>
    1dc5:	31 c9                	xor    ecx,ecx
    1dc7:	31 c0                	xor    eax,eax
    1dc9:	e9 13 ff ff ff       	jmp    1ce1 <_Z13sumHashString8string_t+0x81>
    1dce:	66 90                	xchg   ax,ax

0000000000001dd0 <_Z17adler32HashString8string_t>:
    1dd0:	f3 0f 1e fa          	endbr64
    1dd4:	48 c1 ee 20          	shr    rsi,0x20
    1dd8:	74 66                	je     1e40 <_Z17adler32HashString8string_t+0x70>
    1dda:	48 01 fe             	add    rsi,rdi
    1ddd:	31 c0                	xor    eax,eax
    1ddf:	ba 01 00 00 00       	mov    edx,0x1
    1de4:	41 b8 71 80 07 80    	mov    r8d,0x80078071
    1dea:	66 0f 1f 44 00 00    	nop    WORD PTR [rax+rax*1+0x0]
    1df0:	0f be 0f             	movsx  ecx,BYTE PTR [rdi]
    1df3:	48 83 c7 01          	add    rdi,0x1
    1df7:	01 ca                	add    edx,ecx
    1df9:	48 89 d1             	mov    rcx,rdx
    1dfc:	49 0f af d0          	imul   rdx,r8
    1e00:	48 c1 ea 2f          	shr    rdx,0x2f
    1e04:	44 69 ca f1 ff 00 00 	imul   r9d,edx,0xfff1
    1e0b:	44 29 c9             	sub    ecx,r9d
    1e0e:	01 c8                	add    eax,ecx
    1e10:	89 ca                	mov    edx,ecx
    1e12:	89 c0                	mov    eax,eax
    1e14:	48 89 c1             	mov    rcx,rax
    1e17:	49 0f af c0          	imul   rax,r8
    1e1b:	48 c1 e8 2f          	shr    rax,0x2f
    1e1f:	44 69 c8 f1 ff 00 00 	imul   r9d,eax,0xfff1
    1e26:	89 c8                	mov    eax,ecx
    1e28:	44 29 c8             	sub    eax,r9d
    1e2b:	48 39 f7             	cmp    rdi,rsi
    1e2e:	75 c0                	jne    1df0 <_Z17adler32HashString8string_t+0x20>
    1e30:	c1 e0 10             	shl    eax,0x10
    1e33:	09 d0                	or     eax,edx
    1e35:	c3                   	ret
    1e36:	66 2e 0f 1f 84 00 00 	cs nop WORD PTR [rax+rax*1+0x0]
    1e3d:	00 00 00 
    1e40:	b8 01 00 00 00       	mov    eax,0x1
    1e45:	c3                   	ret
    1e46:	66 2e 0f 1f 84 00 00 	cs nop WORD PTR [rax+rax*1+0x0]
    1e4d:	00 00 00 

0000000000001e50 <_Z13elfHashString8string_t>:
    1e50:	f3 0f 1e fa          	endbr64
    1e54:	48 c1 ee 20          	shr    rsi,0x20
    1e58:	89 f0                	mov    eax,esi
    1e5a:	85 f6                	test   esi,esi
    1e5c:	74 3b                	je     1e99 <_Z13elfHashString8string_t+0x49>
    1e5e:	48 01 fe             	add    rsi,rdi
    1e61:	31 c0                	xor    eax,eax
    1e63:	0f 1f 44 00 00       	nop    DWORD PTR [rax+rax*1+0x0]
    1e68:	0f be 17             	movsx  edx,BYTE PTR [rdi]
    1e6b:	c1 e0 04             	shl    eax,0x4
    1e6e:	01 d0                	add    eax,edx
    1e70:	89 c2                	mov    edx,eax
    1e72:	81 e2 00 00 00 f0    	and    edx,0xf0000000
    1e78:	74 16                	je     1e90 <_Z13elfHashString8string_t+0x40>
    1e7a:	89 d1                	mov    ecx,edx
    1e7c:	48 83 c7 01          	add    rdi,0x1
    1e80:	f7 d2                	not    edx
    1e82:	c1 e9 18             	shr    ecx,0x18
    1e85:	31 c8                	xor    eax,ecx
    1e87:	21 d0                	and    eax,edx
    1e89:	48 39 fe             	cmp    rsi,rdi
    1e8c:	75 da                	jne    1e68 <_Z13elfHashString8string_t+0x18>
    1e8e:	c3                   	ret
    1e8f:	90                   	nop
    1e90:	48 83 c7 01          	add    rdi,0x1
    1e94:	48 39 fe             	cmp    rsi,rdi
    1e97:	75 cf                	jne    1e68 <_Z13elfHashString8string_t+0x18>
    1e99:	c3                   	ret
    1e9a:	66 0f 1f 44 00 00    	nop    WORD PTR [rax+rax*1+0x0]

0000000000001ea0 <_Z13searchElementP4List8string_t.part.0>:
    1ea0:	50                   	push   rax
    1ea1:	58                   	pop    rax
    1ea2:	48 8d 0d 1f 25 00 00 	lea    rcx,[rip+0x251f]        # 43c8 <_IO_stdin_used+0x3c8>
    1ea9:	ba 54 00 00 00       	mov    edx,0x54
    1eae:	48 8d 35 e3 21 00 00 	lea    rsi,[rip+0x21e3]        # 4098 <_IO_stdin_used+0x98>
    1eb5:	48 8d 3d f7 21 00 00 	lea    rdi,[rip+0x21f7]        # 40b3 <_IO_stdin_used+0xb3>
    1ebc:	48 83 ec 08          	sub    rsp,0x8
    1ec0:	e8 ab f1 ff ff       	call   1070 <__assert_fail@plt>
    1ec5:	66 66 2e 0f 1f 84 00 	data16 cs nop WORD PTR [rax+rax*1+0x0]
    1ecc:	00 00 00 00 

0000000000001ed0 <_Z8listCtorv>:
    1ed0:	f3 0f 1e fa          	endbr64
    1ed4:	53                   	push   rbx
    1ed5:	be 20 00 00 00       	mov    esi,0x20
    1eda:	48 89 fb             	mov    rbx,rdi
    1edd:	bf 04 00 00 00       	mov    edi,0x4
    1ee2:	e8 99 f1 ff ff       	call   1080 <calloc@plt>
    1ee7:	48 8b 15 e2 27 00 00 	mov    rdx,QWORD PTR [rip+0x27e2]        # 46d0 <_IO_stdin_used+0x6d0>
    1eee:	48 b9 01 00 00 00 04 	movabs rcx,0x400000001
    1ef5:	00 00 00 
    1ef8:	48 c7 43 10 00 00 00 	mov    QWORD PTR [rbx+0x10],0x0
    1eff:	00 
    1f00:	48 89 03             	mov    QWORD PTR [rbx],rax
    1f03:	48 89 50 20          	mov    QWORD PTR [rax+0x20],rdx
    1f07:	48 8b 15 ca 27 00 00 	mov    rdx,QWORD PTR [rip+0x27ca]        # 46d8 <_IO_stdin_used+0x6d8>
    1f0e:	48 c7 00 00 00 00 00 	mov    QWORD PTR [rax],0x0
    1f15:	48 89 50 40          	mov    QWORD PTR [rax+0x40],rdx
    1f19:	48 8b 15 c0 27 00 00 	mov    rdx,QWORD PTR [rip+0x27c0]        # 46e0 <_IO_stdin_used+0x6e0>
    1f20:	48 89 4b 08          	mov    QWORD PTR [rbx+0x8],rcx
    1f24:	48 89 50 60          	mov    QWORD PTR [rax+0x60],rdx
    1f28:	48 89 d8             	mov    rax,rbx
    1f2b:	5b                   	pop    rbx
    1f2c:	c3                   	ret
    1f2d:	0f 1f 00             	nop    DWORD PTR [rax]

0000000000001f30 <_Z12pushListElemP4List8string_t>:
    1f30:	f3 0f 1e fa          	endbr64
    1f34:	41 55                	push   r13
    1f36:	41 54                	push   r12
    1f38:	55                   	push   rbp
    1f39:	53                   	push   rbx
    1f3a:	48 83 ec 08          	sub    rsp,0x8
    1f3e:	48 85 ff             	test   rdi,rdi
    1f41:	0f 84 3d 01 00 00    	je     2084 <_Z12pushListElemP4List8string_t+0x154>
    1f47:	48 89 fd             	mov    rbp,rdi
    1f4a:	48 8b 3f             	mov    rdi,QWORD PTR [rdi]
    1f4d:	49 89 f4             	mov    r12,rsi
    1f50:	49 89 d5             	mov    r13,rdx
    1f53:	8b 1f                	mov    ebx,DWORD PTR [rdi]
    1f55:	85 db                	test   ebx,ebx
    1f57:	75 12                	jne    1f6b <_Z12pushListElemP4List8string_t+0x3b>
    1f59:	e9 c2 00 00 00       	jmp    2020 <_Z12pushListElemP4List8string_t+0xf0>
    1f5e:	66 90                	xchg   ax,ax
    1f60:	8b 1c 1f             	mov    ebx,DWORD PTR [rdi+rbx*1]
    1f63:	85 db                	test   ebx,ebx
    1f65:	0f 84 b5 00 00 00    	je     2020 <_Z12pushListElemP4List8string_t+0xf0>
    1f6b:	48 c1 e3 05          	shl    rbx,0x5
    1f6f:	48 8b 74 1f 10       	mov    rsi,QWORD PTR [rdi+rbx*1+0x10]
    1f74:	4c 89 e7             	mov    rdi,r12
    1f77:	e8 c4 1b 00 00       	call   3b40 <my_strcmp>
    1f7c:	48 8b 7d 00          	mov    rdi,QWORD PTR [rbp+0x0]
    1f80:	85 c0                	test   eax,eax
    1f82:	75 dc                	jne    1f60 <_Z12pushListElemP4List8string_t+0x30>
    1f84:	48 8d 04 1f          	lea    rax,[rdi+rbx*1]
    1f88:	8b 55 08             	mov    edx,DWORD PTR [rbp+0x8]
    1f8b:	8b 48 08             	mov    ecx,DWORD PTR [rax+0x8]
    1f8e:	83 c1 01             	add    ecx,0x1
    1f91:	89 48 08             	mov    DWORD PTR [rax+0x8],ecx
    1f94:	39 55 0c             	cmp    DWORD PTR [rbp+0xc],edx
    1f97:	0f 85 d0 00 00 00    	jne    206d <_Z12pushListElemP4List8string_t+0x13d>
    1f9d:	44 8d 24 12          	lea    r12d,[rdx+rdx*1]
    1fa1:	44 89 65 0c          	mov    DWORD PTR [rbp+0xc],r12d
    1fa5:	49 c1 e4 05          	shl    r12,0x5
    1fa9:	4c 89 e6             	mov    rsi,r12
    1fac:	e8 bf f1 ff ff       	call   1170 <realloc@plt>
    1fb1:	8b 55 0c             	mov    edx,DWORD PTR [rbp+0xc]
    1fb4:	4c 89 e1             	mov    rcx,r12
    1fb7:	48 89 45 00          	mov    QWORD PTR [rbp+0x0],rax
    1fbb:	d1 ea                	shr    edx,1
    1fbd:	48 c1 e2 05          	shl    rdx,0x5
    1fc1:	49 39 d4             	cmp    r12,rdx
    1fc4:	48 8d 3c 10          	lea    rdi,[rax+rdx*1]
    1fc8:	48 0f 42 ca          	cmovb  rcx,rdx
    1fcc:	31 f6                	xor    esi,esi
    1fce:	48 29 d1             	sub    rcx,rdx
    1fd1:	e8 4a f1 ff ff       	call   1120 <__memset_chk@plt>
    1fd6:	8b 45 08             	mov    eax,DWORD PTR [rbp+0x8]
    1fd9:	8b 75 0c             	mov    esi,DWORD PTR [rbp+0xc]
    1fdc:	39 f0                	cmp    eax,esi
    1fde:	0f 83 96 00 00 00    	jae    207a <_Z12pushListElemP4List8string_t+0x14a>
    1fe4:	48 8b 7d 00          	mov    rdi,QWORD PTR [rbp+0x0]
    1fe8:	89 c2                	mov    edx,eax
    1fea:	48 c1 e2 05          	shl    rdx,0x5
    1fee:	48 01 fa             	add    rdx,rdi
    1ff1:	0f 1f 80 00 00 00 00 	nop    DWORD PTR [rax+0x0]
    1ff8:	89 c1                	mov    ecx,eax
    1ffa:	83 c0 01             	add    eax,0x1
    1ffd:	48 83 c2 20          	add    rdx,0x20
    2001:	89 42 e0             	mov    DWORD PTR [rdx-0x20],eax
    2004:	89 4a e4             	mov    DWORD PTR [rdx-0x1c],ecx
    2007:	39 f0                	cmp    eax,esi
    2009:	75 ed                	jne    1ff8 <_Z12pushListElemP4List8string_t+0xc8>
    200b:	8b 4c 1f 08          	mov    ecx,DWORD PTR [rdi+rbx*1+0x8]
    200f:	48 83 c4 08          	add    rsp,0x8
    2013:	5b                   	pop    rbx
    2014:	5d                   	pop    rbp
    2015:	89 c8                	mov    eax,ecx
    2017:	41 5c                	pop    r12
    2019:	41 5d                	pop    r13
    201b:	c3                   	ret
    201c:	0f 1f 40 00          	nop    DWORD PTR [rax+0x0]
    2020:	8b 5d 08             	mov    ebx,DWORD PTR [rbp+0x8]
    2023:	8b 4f 04             	mov    ecx,DWORD PTR [rdi+0x4]
    2026:	48 89 de             	mov    rsi,rbx
    2029:	48 c1 e3 05          	shl    rbx,0x5
    202d:	48 8d 04 1f          	lea    rax,[rdi+rbx*1]
    2031:	8b 10                	mov    edx,DWORD PTR [rax]
    2033:	89 55 08             	mov    DWORD PTR [rbp+0x8],edx
    2036:	89 48 04             	mov    DWORD PTR [rax+0x4],ecx
    2039:	48 c1 e1 05          	shl    rcx,0x5
    203d:	c7 40 08 00 00 00 00 	mov    DWORD PTR [rax+0x8],0x0
    2044:	4c 89 60 10          	mov    QWORD PTR [rax+0x10],r12
    2048:	4c 89 68 18          	mov    QWORD PTR [rax+0x18],r13
    204c:	c7 00 00 00 00 00    	mov    DWORD PTR [rax],0x0
    2052:	89 77 04             	mov    DWORD PTR [rdi+0x4],esi
    2055:	89 34 0f             	mov    DWORD PTR [rdi+rcx*1],esi
    2058:	b9 01 00 00 00       	mov    ecx,0x1
    205d:	83 45 10 01          	add    DWORD PTR [rbp+0x10],0x1
    2061:	89 48 08             	mov    DWORD PTR [rax+0x8],ecx
    2064:	39 55 0c             	cmp    DWORD PTR [rbp+0xc],edx
    2067:	0f 84 30 ff ff ff    	je     1f9d <_Z12pushListElemP4List8string_t+0x6d>
    206d:	48 83 c4 08          	add    rsp,0x8
    2071:	89 c8                	mov    eax,ecx
    2073:	5b                   	pop    rbx
    2074:	5d                   	pop    rbp
    2075:	41 5c                	pop    r12
    2077:	41 5d                	pop    r13
    2079:	c3                   	ret
    207a:	48 8b 45 00          	mov    rax,QWORD PTR [rbp+0x0]
    207e:	8b 4c 18 08          	mov    ecx,DWORD PTR [rax+rbx*1+0x8]
    2082:	eb e9                	jmp    206d <_Z12pushListElemP4List8string_t+0x13d>
    2084:	48 8d 0d 65 23 00 00 	lea    rcx,[rip+0x2365]        # 43f0 <_IO_stdin_used+0x3f0>
    208b:	ba 1e 00 00 00       	mov    edx,0x1e
    2090:	48 8d 35 01 20 00 00 	lea    rsi,[rip+0x2001]        # 4098 <_IO_stdin_used+0x98>
    2097:	48 8d 3d 15 20 00 00 	lea    rdi,[rip+0x2015]        # 40b3 <_IO_stdin_used+0xb3>
    209e:	e8 cd ef ff ff       	call   1070 <__assert_fail@plt>
    20a3:	66 66 2e 0f 1f 84 00 	data16 cs nop WORD PTR [rax+rax*1+0x0]
    20aa:	00 00 00 00 
    20ae:	66 90                	xchg   ax,ax

00000000000020b0 <_Z11popListElemP4List8string_t>:
    20b0:	f3 0f 1e fa          	endbr64
    20b4:	41 55                	push   r13
    20b6:	41 54                	push   r12
    20b8:	55                   	push   rbp
    20b9:	53                   	push   rbx
    20ba:	48 83 ec 08          	sub    rsp,0x8
    20be:	48 85 ff             	test   rdi,rdi
    20c1:	0f 84 a6 00 00 00    	je     216d <_Z11popListElemP4List8string_t+0xbd>
    20c7:	48 8b 07             	mov    rax,QWORD PTR [rdi]
    20ca:	49 89 fc             	mov    r12,rdi
    20cd:	49 89 f5             	mov    r13,rsi
    20d0:	8b 28                	mov    ebp,DWORD PTR [rax]
    20d2:	85 ed                	test   ebp,ebp
    20d4:	75 15                	jne    20eb <_Z11popListElemP4List8string_t+0x3b>
    20d6:	e9 85 00 00 00       	jmp    2160 <_Z11popListElemP4List8string_t+0xb0>
    20db:	0f 1f 44 00 00       	nop    DWORD PTR [rax+rax*1+0x0]
    20e0:	49 8b 04 24          	mov    rax,QWORD PTR [r12]
    20e4:	8b 2c 18             	mov    ebp,DWORD PTR [rax+rbx*1]
    20e7:	85 ed                	test   ebp,ebp
    20e9:	74 75                	je     2160 <_Z11popListElemP4List8string_t+0xb0>
    20eb:	89 eb                	mov    ebx,ebp
    20ed:	4c 89 ef             	mov    rdi,r13
    20f0:	48 c1 e3 05          	shl    rbx,0x5
    20f4:	48 8b 74 18 10       	mov    rsi,QWORD PTR [rax+rbx*1+0x10]
    20f9:	e8 42 1a 00 00       	call   3b40 <my_strcmp>
    20fe:	85 c0                	test   eax,eax
    2100:	75 de                	jne    20e0 <_Z11popListElemP4List8string_t+0x30>
    2102:	49 8b 0c 24          	mov    rcx,QWORD PTR [r12]
    2106:	c4 c1 79 6e 4c 24 08 	vmovd  xmm1,DWORD PTR [r12+0x8]
    210d:	89 e8                	mov    eax,ebp
    210f:	48 01 cb             	add    rbx,rcx
    2112:	c4 e3 71 22 c5 01    	vpinsrd xmm0,xmm1,ebp,0x1
    2118:	8b 73 04             	mov    esi,DWORD PTR [rbx+0x4]
    211b:	8b 13                	mov    edx,DWORD PTR [rbx]
    211d:	c7 43 18 00 00 00 00 	mov    DWORD PTR [rbx+0x18],0x0
    2124:	48 c7 43 10 00 00 00 	mov    QWORD PTR [rbx+0x10],0x0
    212b:	00 
    212c:	48 89 f7             	mov    rdi,rsi
    212f:	48 c1 e6 05          	shl    rsi,0x5
    2133:	89 14 31             	mov    DWORD PTR [rcx+rsi*1],edx
    2136:	48 c1 e2 05          	shl    rdx,0x5
    213a:	89 7c 11 04          	mov    DWORD PTR [rcx+rdx*1+0x4],edi
    213e:	c5 f9 d6 03          	vmovq  QWORD PTR [rbx],xmm0
    2142:	41 89 6c 24 08       	mov    DWORD PTR [r12+0x8],ebp
    2147:	41 83 6c 24 10 01    	sub    DWORD PTR [r12+0x10],0x1
    214d:	48 83 c4 08          	add    rsp,0x8
    2151:	5b                   	pop    rbx
    2152:	5d                   	pop    rbp
    2153:	41 5c                	pop    r12
    2155:	41 5d                	pop    r13
    2157:	c3                   	ret
    2158:	0f 1f 84 00 00 00 00 	nop    DWORD PTR [rax+rax*1+0x0]
    215f:	00 
    2160:	48 83 c4 08          	add    rsp,0x8
    2164:	31 c0                	xor    eax,eax
    2166:	5b                   	pop    rbx
    2167:	5d                   	pop    rbp
    2168:	41 5c                	pop    r12
    216a:	41 5d                	pop    r13
    216c:	c3                   	ret
    216d:	48 8d 0d 9c 22 00 00 	lea    rcx,[rip+0x229c]        # 4410 <_IO_stdin_used+0x410>
    2174:	ba 3b 00 00 00       	mov    edx,0x3b
    2179:	48 8d 35 18 1f 00 00 	lea    rsi,[rip+0x1f18]        # 4098 <_IO_stdin_used+0x98>
    2180:	48 8d 3d 2c 1f 00 00 	lea    rdi,[rip+0x1f2c]        # 40b3 <_IO_stdin_used+0xb3>
    2187:	e8 e4 ee ff ff       	call   1070 <__assert_fail@plt>
    218c:	0f 1f 40 00          	nop    DWORD PTR [rax+0x0]

0000000000002190 <_Z13searchElementP4List8string_t>:
    2190:	f3 0f 1e fa          	endbr64
    2194:	41 55                	push   r13
    2196:	41 54                	push   r12
    2198:	55                   	push   rbp
    2199:	53                   	push   rbx
    219a:	48 83 ec 08          	sub    rsp,0x8
    219e:	48 85 ff             	test   rdi,rdi
    21a1:	74 5a                	je     21fd <_Z13searchElementP4List8string_t+0x6d>
    21a3:	48 8b 07             	mov    rax,QWORD PTR [rdi]
    21a6:	49 89 fc             	mov    r12,rdi
    21a9:	49 89 f5             	mov    r13,rsi
    21ac:	8b 28                	mov    ebp,DWORD PTR [rax]
    21ae:	85 ed                	test   ebp,ebp
    21b0:	75 11                	jne    21c3 <_Z13searchElementP4List8string_t+0x33>
    21b2:	eb 3c                	jmp    21f0 <_Z13searchElementP4List8string_t+0x60>
    21b4:	0f 1f 40 00          	nop    DWORD PTR [rax+0x0]
    21b8:	49 8b 04 24          	mov    rax,QWORD PTR [r12]
    21bc:	8b 2c 18             	mov    ebp,DWORD PTR [rax+rbx*1]
    21bf:	85 ed                	test   ebp,ebp
    21c1:	74 2d                	je     21f0 <_Z13searchElementP4List8string_t+0x60>
    21c3:	89 eb                	mov    ebx,ebp
    21c5:	4c 89 ef             	mov    rdi,r13
    21c8:	48 c1 e3 05          	shl    rbx,0x5
    21cc:	48 8b 74 18 10       	mov    rsi,QWORD PTR [rax+rbx*1+0x10]
    21d1:	e8 6a 19 00 00       	call   3b40 <my_strcmp>
    21d6:	85 c0                	test   eax,eax
    21d8:	75 de                	jne    21b8 <_Z13searchElementP4List8string_t+0x28>
    21da:	48 83 c4 08          	add    rsp,0x8
    21de:	89 e8                	mov    eax,ebp
    21e0:	5b                   	pop    rbx
    21e1:	5d                   	pop    rbp
    21e2:	41 5c                	pop    r12
    21e4:	41 5d                	pop    r13
    21e6:	c3                   	ret
    21e7:	66 0f 1f 84 00 00 00 	nop    WORD PTR [rax+rax*1+0x0]
    21ee:	00 00 
    21f0:	48 83 c4 08          	add    rsp,0x8
    21f4:	31 c0                	xor    eax,eax
    21f6:	5b                   	pop    rbx
    21f7:	5d                   	pop    rbp
    21f8:	41 5c                	pop    r12
    21fa:	41 5d                	pop    r13
    21fc:	c3                   	ret
    21fd:	e8 9e fc ff ff       	call   1ea0 <_Z13searchElementP4List8string_t.part.0>
    2202:	66 66 2e 0f 1f 84 00 	data16 cs nop WORD PTR [rax+rax*1+0x0]
    2209:	00 00 00 00 
    220d:	0f 1f 00             	nop    DWORD PTR [rax]

0000000000002210 <_Z8listDtorP4List>:
    2210:	f3 0f 1e fa          	endbr64
    2214:	53                   	push   rbx
    2215:	48 85 ff             	test   rdi,rdi
    2218:	74 15                	je     222f <_Z8listDtorP4List+0x1f>
    221a:	48 89 fb             	mov    rbx,rdi
    221d:	48 8b 3f             	mov    rdi,QWORD PTR [rdi]
    2220:	e8 db ee ff ff       	call   1100 <free@plt>
    2225:	48 c7 43 08 00 00 00 	mov    QWORD PTR [rbx+0x8],0x0
    222c:	00 
    222d:	5b                   	pop    rbx
    222e:	c3                   	ret
    222f:	48 8d 0d 82 1e 00 00 	lea    rcx,[rip+0x1e82]        # 40b8 <_IO_stdin_used+0xb8>
    2236:	ba 8e 00 00 00       	mov    edx,0x8e
    223b:	48 8d 35 56 1e 00 00 	lea    rsi,[rip+0x1e56]        # 4098 <_IO_stdin_used+0x98>
    2242:	48 8d 3d 6a 1e 00 00 	lea    rdi,[rip+0x1e6a]        # 40b3 <_IO_stdin_used+0xb3>
    2249:	e8 22 ee ff ff       	call   1070 <__assert_fail@plt>
    224e:	66 90                	xchg   ax,ax

0000000000002250 <_Z10debugPrintP4List>:
    2250:	f3 0f 1e fa          	endbr64
    2254:	41 54                	push   r12
    2256:	55                   	push   rbp
    2257:	53                   	push   rbx
    2258:	48 85 ff             	test   rdi,rdi
    225b:	0f 84 f3 01 00 00    	je     2454 <_Z10debugPrintP4List+0x204>
    2261:	8b 57 0c             	mov    edx,DWORD PTR [rdi+0xc]
    2264:	48 89 fb             	mov    rbx,rdi
    2267:	48 8d 35 76 1e 00 00 	lea    rsi,[rip+0x1e76]        # 40e4 <_IO_stdin_used+0xe4>
    226e:	31 c0                	xor    eax,eax
    2270:	bf 02 00 00 00       	mov    edi,0x2
    2275:	e8 b6 ed ff ff       	call   1030 <__printf_chk@plt>
    227a:	8b 53 08             	mov    edx,DWORD PTR [rbx+0x8]
    227d:	bf 02 00 00 00       	mov    edi,0x2
    2282:	31 c0                	xor    eax,eax
    2284:	48 8d 35 67 1e 00 00 	lea    rsi,[rip+0x1e67]        # 40f2 <_IO_stdin_used+0xf2>
    228b:	e8 a0 ed ff ff       	call   1030 <__printf_chk@plt>
    2290:	8b 53 10             	mov    edx,DWORD PTR [rbx+0x10]
    2293:	bf 02 00 00 00       	mov    edi,0x2
    2298:	31 c0                	xor    eax,eax
    229a:	48 8d 35 5f 1e 00 00 	lea    rsi,[rip+0x1e5f]        # 4100 <_IO_stdin_used+0x100>
    22a1:	e8 8a ed ff ff       	call   1030 <__printf_chk@plt>
    22a6:	bf 02 00 00 00       	mov    edi,0x2
    22ab:	48 8d 35 5c 1e 00 00 	lea    rsi,[rip+0x1e5c]        # 410e <_IO_stdin_used+0x10e>
    22b2:	31 c0                	xor    eax,eax
    22b4:	e8 77 ed ff ff       	call   1030 <__printf_chk@plt>
    22b9:	8b 7b 0c             	mov    edi,DWORD PTR [rbx+0xc]
    22bc:	85 ff                	test   edi,edi
    22be:	74 2c                	je     22ec <_Z10debugPrintP4List+0x9c>
    22c0:	45 31 e4             	xor    r12d,r12d
    22c3:	48 8d 2d 4f 1e 00 00 	lea    rbp,[rip+0x1e4f]        # 4119 <_IO_stdin_used+0x119>
    22ca:	66 0f 1f 44 00 00    	nop    WORD PTR [rax+rax*1+0x0]
    22d0:	44 89 e2             	mov    edx,r12d
    22d3:	48 89 ee             	mov    rsi,rbp
    22d6:	bf 02 00 00 00       	mov    edi,0x2
    22db:	31 c0                	xor    eax,eax
    22dd:	e8 4e ed ff ff       	call   1030 <__printf_chk@plt>
    22e2:	41 83 c4 01          	add    r12d,0x1
    22e6:	44 3b 63 0c          	cmp    r12d,DWORD PTR [rbx+0xc]
    22ea:	72 e4                	jb     22d0 <_Z10debugPrintP4List+0x80>
    22ec:	bf 0a 00 00 00       	mov    edi,0xa
    22f1:	e8 3a ee ff ff       	call   1130 <putchar@plt>
    22f6:	48 8d 35 20 1e 00 00 	lea    rsi,[rip+0x1e20]        # 411d <_IO_stdin_used+0x11d>
    22fd:	bf 02 00 00 00       	mov    edi,0x2
    2302:	31 c0                	xor    eax,eax
    2304:	e8 27 ed ff ff       	call   1030 <__printf_chk@plt>
    2309:	8b 73 0c             	mov    esi,DWORD PTR [rbx+0xc]
    230c:	85 f6                	test   esi,esi
    230e:	74 35                	je     2345 <_Z10debugPrintP4List+0xf5>
    2310:	45 31 e4             	xor    r12d,r12d
    2313:	48 8d 2d ff 1d 00 00 	lea    rbp,[rip+0x1dff]        # 4119 <_IO_stdin_used+0x119>
    231a:	66 0f 1f 44 00 00    	nop    WORD PTR [rax+rax*1+0x0]
    2320:	4c 89 e0             	mov    rax,r12
    2323:	48 89 ee             	mov    rsi,rbp
    2326:	bf 02 00 00 00       	mov    edi,0x2
    232b:	49 83 c4 01          	add    r12,0x1
    232f:	48 c1 e0 05          	shl    rax,0x5
    2333:	48 03 03             	add    rax,QWORD PTR [rbx]
    2336:	8b 10                	mov    edx,DWORD PTR [rax]
    2338:	31 c0                	xor    eax,eax
    233a:	e8 f1 ec ff ff       	call   1030 <__printf_chk@plt>
    233f:	44 3b 63 0c          	cmp    r12d,DWORD PTR [rbx+0xc]
    2343:	72 db                	jb     2320 <_Z10debugPrintP4List+0xd0>
    2345:	bf 0a 00 00 00       	mov    edi,0xa
    234a:	e8 e1 ed ff ff       	call   1130 <putchar@plt>
    234f:	48 8d 35 d2 1d 00 00 	lea    rsi,[rip+0x1dd2]        # 4128 <_IO_stdin_used+0x128>
    2356:	bf 02 00 00 00       	mov    edi,0x2
    235b:	31 c0                	xor    eax,eax
    235d:	e8 ce ec ff ff       	call   1030 <__printf_chk@plt>
    2362:	8b 4b 0c             	mov    ecx,DWORD PTR [rbx+0xc]
    2365:	85 c9                	test   ecx,ecx
    2367:	74 35                	je     239e <_Z10debugPrintP4List+0x14e>
    2369:	45 31 e4             	xor    r12d,r12d
    236c:	48 8d 2d a6 1d 00 00 	lea    rbp,[rip+0x1da6]        # 4119 <_IO_stdin_used+0x119>
    2373:	0f 1f 44 00 00       	nop    DWORD PTR [rax+rax*1+0x0]
    2378:	4c 89 e0             	mov    rax,r12
    237b:	48 89 ee             	mov    rsi,rbp
    237e:	bf 02 00 00 00       	mov    edi,0x2
    2383:	49 83 c4 01          	add    r12,0x1
    2387:	48 c1 e0 05          	shl    rax,0x5
    238b:	48 03 03             	add    rax,QWORD PTR [rbx]
    238e:	8b 50 04             	mov    edx,DWORD PTR [rax+0x4]
    2391:	31 c0                	xor    eax,eax
    2393:	e8 98 ec ff ff       	call   1030 <__printf_chk@plt>
    2398:	44 3b 63 0c          	cmp    r12d,DWORD PTR [rbx+0xc]
    239c:	72 da                	jb     2378 <_Z10debugPrintP4List+0x128>
    239e:	bf 0a 00 00 00       	mov    edi,0xa
    23a3:	e8 88 ed ff ff       	call   1130 <putchar@plt>
    23a8:	48 8d 35 84 1d 00 00 	lea    rsi,[rip+0x1d84]        # 4133 <_IO_stdin_used+0x133>
    23af:	bf 02 00 00 00       	mov    edi,0x2
    23b4:	31 c0                	xor    eax,eax
    23b6:	e8 75 ec ff ff       	call   1030 <__printf_chk@plt>
    23bb:	8b 53 0c             	mov    edx,DWORD PTR [rbx+0xc]
    23be:	85 d2                	test   edx,edx
    23c0:	74 34                	je     23f6 <_Z10debugPrintP4List+0x1a6>
    23c2:	45 31 e4             	xor    r12d,r12d
    23c5:	48 8d 2d 4d 1d 00 00 	lea    rbp,[rip+0x1d4d]        # 4119 <_IO_stdin_used+0x119>
    23cc:	0f 1f 40 00          	nop    DWORD PTR [rax+0x0]
    23d0:	4c 89 e0             	mov    rax,r12
    23d3:	48 89 ee             	mov    rsi,rbp
    23d6:	bf 02 00 00 00       	mov    edi,0x2
    23db:	49 83 c4 01          	add    r12,0x1
    23df:	48 c1 e0 05          	shl    rax,0x5
    23e3:	48 03 03             	add    rax,QWORD PTR [rbx]
    23e6:	8b 50 18             	mov    edx,DWORD PTR [rax+0x18]
    23e9:	31 c0                	xor    eax,eax
    23eb:	e8 40 ec ff ff       	call   1030 <__printf_chk@plt>
    23f0:	44 3b 63 0c          	cmp    r12d,DWORD PTR [rbx+0xc]
    23f4:	72 da                	jb     23d0 <_Z10debugPrintP4List+0x180>
    23f6:	bf 0a 00 00 00       	mov    edi,0xa
    23fb:	e8 30 ed ff ff       	call   1130 <putchar@plt>
    2400:	48 8d 3d 37 1d 00 00 	lea    rdi,[rip+0x1d37]        # 413e <_IO_stdin_used+0x13e>
    2407:	e8 54 ed ff ff       	call   1160 <puts@plt>
    240c:	8b 43 0c             	mov    eax,DWORD PTR [rbx+0xc]
    240f:	85 c0                	test   eax,eax
    2411:	74 33                	je     2446 <_Z10debugPrintP4List+0x1f6>
    2413:	31 ed                	xor    ebp,ebp
    2415:	4c 8d 25 27 1d 00 00 	lea    r12,[rip+0x1d27]        # 4143 <_IO_stdin_used+0x143>
    241c:	0f 1f 40 00          	nop    DWORD PTR [rax+0x0]
    2420:	48 89 e8             	mov    rax,rbp
    2423:	4c 89 e6             	mov    rsi,r12
    2426:	bf 02 00 00 00       	mov    edi,0x2
    242b:	48 83 c5 01          	add    rbp,0x1
    242f:	48 c1 e0 05          	shl    rax,0x5
    2433:	48 03 03             	add    rax,QWORD PTR [rbx]
    2436:	48 8b 50 10          	mov    rdx,QWORD PTR [rax+0x10]
    243a:	31 c0                	xor    eax,eax
    243c:	e8 ef eb ff ff       	call   1030 <__printf_chk@plt>
    2441:	3b 6b 0c             	cmp    ebp,DWORD PTR [rbx+0xc]
    2444:	72 da                	jb     2420 <_Z10debugPrintP4List+0x1d0>
    2446:	5b                   	pop    rbx
    2447:	bf 0a 00 00 00       	mov    edi,0xa
    244c:	5d                   	pop    rbp
    244d:	41 5c                	pop    r12
    244f:	e9 dc ec ff ff       	jmp    1130 <putchar@plt>
    2454:	48 8d 0d 72 1c 00 00 	lea    rcx,[rip+0x1c72]        # 40cd <_IO_stdin_used+0xcd>
    245b:	ba 97 00 00 00       	mov    edx,0x97
    2460:	48 8d 35 31 1c 00 00 	lea    rsi,[rip+0x1c31]        # 4098 <_IO_stdin_used+0x98>
    2467:	48 8d 3d 45 1c 00 00 	lea    rdi,[rip+0x1c45]        # 40b3 <_IO_stdin_used+0xb3>
    246e:	e8 fd eb ff ff       	call   1070 <__assert_fail@plt>
    2473:	66 2e 0f 1f 84 00 00 	cs nop WORD PTR [rax+rax*1+0x0]
    247a:	00 00 00 
    247d:	0f 1f 00             	nop    DWORD PTR [rax]

0000000000002480 <_Z8readFilePKcPm>:
    2480:	f3 0f 1e fa          	endbr64
    2484:	55                   	push   rbp
    2485:	48 89 e5             	mov    rbp,rsp
    2488:	41 55                	push   r13
    248a:	41 54                	push   r12
    248c:	53                   	push   rbx
    248d:	48 81 ec a8 00 00 00 	sub    rsp,0xa8
    2494:	64 48 8b 04 25 28 00 	mov    rax,QWORD PTR fs:0x28
    249b:	00 00 
    249d:	48 89 84 24 98 00 00 	mov    QWORD PTR [rsp+0x98],rax
    24a4:	00 
    24a5:	31 c0                	xor    eax,eax
    24a7:	48 85 ff             	test   rdi,rdi
    24aa:	0f 84 b4 00 00 00    	je     2564 <_Z8readFilePKcPm+0xe4>
    24b0:	c5 f9 ef c0          	vpxor  xmm0,xmm0,xmm0
    24b4:	49 89 f4             	mov    r12,rsi
    24b7:	48 89 e6             	mov    rsi,rsp
    24ba:	48 89 fb             	mov    rbx,rdi
    24bd:	c5 fe 7f 04 24       	vmovdqu YMMWORD PTR [rsp],ymm0
    24c2:	c5 fe 7f 44 24 20    	vmovdqu YMMWORD PTR [rsp+0x20],ymm0
    24c8:	c5 fe 7f 44 24 40    	vmovdqu YMMWORD PTR [rsp+0x40],ymm0
    24ce:	c5 fe 7f 44 24 60    	vmovdqu YMMWORD PTR [rsp+0x60],ymm0
    24d4:	c5 f9 7f 84 24 80 00 	vmovdqa XMMWORD PTR [rsp+0x80],xmm0
    24db:	00 00 
    24dd:	c5 f8 77             	vzeroupper
    24e0:	e8 cb eb ff ff       	call   10b0 <stat@plt>
    24e5:	83 f8 ff             	cmp    eax,0xffffffff
    24e8:	74 76                	je     2560 <_Z8readFilePKcPm+0xe0>
    24ea:	4c 8b 6c 24 30       	mov    r13,QWORD PTR [rsp+0x30]
    24ef:	31 f6                	xor    esi,esi
    24f1:	48 89 df             	mov    rdi,rbx
    24f4:	31 c0                	xor    eax,eax
    24f6:	4d 89 2c 24          	mov    QWORD PTR [r12],r13
    24fa:	e8 91 eb ff ff       	call   1090 <open@plt>
    24ff:	41 89 c4             	mov    r12d,eax
    2502:	83 f8 ff             	cmp    eax,0xffffffff
    2505:	74 59                	je     2560 <_Z8readFilePKcPm+0xe0>
    2507:	be 01 00 00 00       	mov    esi,0x1
    250c:	4c 89 ef             	mov    rdi,r13
    250f:	e8 6c eb ff ff       	call   1080 <calloc@plt>
    2514:	48 89 c3             	mov    rbx,rax
    2517:	48 85 c0             	test   rax,rax
    251a:	74 16                	je     2532 <_Z8readFilePKcPm+0xb2>
    251c:	44 89 e7             	mov    edi,r12d
    251f:	4c 89 ea             	mov    rdx,r13
    2522:	48 89 c6             	mov    rsi,rax
    2525:	e8 26 ec ff ff       	call   1150 <read@plt>
    252a:	44 89 e7             	mov    edi,r12d
    252d:	e8 7e ec ff ff       	call   11b0 <close@plt>
    2532:	48 8b 84 24 98 00 00 	mov    rax,QWORD PTR [rsp+0x98]
    2539:	00 
    253a:	64 48 2b 04 25 28 00 	sub    rax,QWORD PTR fs:0x28
    2541:	00 00 
    2543:	75 3e                	jne    2583 <_Z8readFilePKcPm+0x103>
    2545:	48 81 c4 a8 00 00 00 	add    rsp,0xa8
    254c:	48 89 d8             	mov    rax,rbx
    254f:	5b                   	pop    rbx
    2550:	41 5c                	pop    r12
    2552:	41 5d                	pop    r13
    2554:	5d                   	pop    rbp
    2555:	c3                   	ret
    2556:	66 2e 0f 1f 84 00 00 	cs nop WORD PTR [rax+rax*1+0x0]
    255d:	00 00 00 
    2560:	31 db                	xor    ebx,ebx
    2562:	eb ce                	jmp    2532 <_Z8readFilePKcPm+0xb2>
    2564:	48 8d 0d c5 1e 00 00 	lea    rcx,[rip+0x1ec5]        # 4430 <_IO_stdin_used+0x430>
    256b:	ba 0c 00 00 00       	mov    edx,0xc
    2570:	48 8d 35 d3 1b 00 00 	lea    rsi,[rip+0x1bd3]        # 414a <_IO_stdin_used+0x14a>
    2577:	48 8d 3d e8 1b 00 00 	lea    rdi,[rip+0x1be8]        # 4166 <_IO_stdin_used+0x166>
    257e:	e8 ed ea ff ff       	call   1070 <__assert_fail@plt>
    2583:	e8 58 eb ff ff       	call   10e0 <__stack_chk_fail@plt>
    2588:	0f 1f 84 00 00 00 00 	nop    DWORD PTR [rax+rax*1+0x0]
    258f:	00 

0000000000002590 <_Z10countLinesPcm>:
    2590:	f3 0f 1e fa          	endbr64
    2594:	41 54                	push   r12
    2596:	55                   	push   rbp
    2597:	53                   	push   rbx
    2598:	48 85 ff             	test   rdi,rdi
    259b:	74 36                	je     25d3 <_Z10countLinesPcm+0x43>
    259d:	48 89 fd             	mov    rbp,rdi
    25a0:	49 89 f4             	mov    r12,rsi
    25a3:	31 db                	xor    ebx,ebx
    25a5:	48 85 f6             	test   rsi,rsi
    25a8:	74 22                	je     25cc <_Z10countLinesPcm+0x3c>
    25aa:	66 0f 1f 44 00 00    	nop    WORD PTR [rax+rax*1+0x0]
    25b0:	be 0a 00 00 00       	mov    esi,0xa
    25b5:	83 c3 01             	add    ebx,0x1
    25b8:	e8 93 ea ff ff       	call   1050 <strchr@plt>
    25bd:	48 8d 78 01          	lea    rdi,[rax+0x1]
    25c1:	48 89 f8             	mov    rax,rdi
    25c4:	48 29 e8             	sub    rax,rbp
    25c7:	4c 39 e0             	cmp    rax,r12
    25ca:	75 e4                	jne    25b0 <_Z10countLinesPcm+0x20>
    25cc:	89 d8                	mov    eax,ebx
    25ce:	5b                   	pop    rbx
    25cf:	5d                   	pop    rbp
    25d0:	41 5c                	pop    r12
    25d2:	c3                   	ret
    25d3:	48 8d 0d 7e 1e 00 00 	lea    rcx,[rip+0x1e7e]        # 4458 <_IO_stdin_used+0x458>
    25da:	ba 22 00 00 00       	mov    edx,0x22
    25df:	48 8d 35 64 1b 00 00 	lea    rsi,[rip+0x1b64]        # 414a <_IO_stdin_used+0x14a>
    25e6:	48 8d 3d 30 1a 00 00 	lea    rdi,[rip+0x1a30]        # 401d <_IO_stdin_used+0x1d>
    25ed:	e8 7e ea ff ff       	call   1070 <__assert_fail@plt>
    25f2:	66 2e 0f 1f 84 00 00 	cs nop WORD PTR [rax+rax*1+0x0]
    25f9:	00 00 00 
    25fc:	0f 1f 40 00          	nop    DWORD PTR [rax+0x0]

0000000000002600 <_Z14testCollisionsP8_IO_FILEPFj8string_tE8TestData>:
    2600:	f3 0f 1e fa          	endbr64
    2604:	4c 8d 54 24 08       	lea    r10,[rsp+0x8]
    2609:	48 83 e4 e0          	and    rsp,0xffffffffffffffe0
    260d:	41 ff 72 f8          	push   QWORD PTR [r10-0x8]
    2611:	55                   	push   rbp
    2612:	48 89 e5             	mov    rbp,rsp
    2615:	41 57                	push   r15
    2617:	41 56                	push   r14
    2619:	41 55                	push   r13
    261b:	41 54                	push   r12
    261d:	41 52                	push   r10
    261f:	53                   	push   rbx
    2620:	48 83 ec 40          	sub    rsp,0x40
    2624:	64 48 8b 04 25 28 00 	mov    rax,QWORD PTR fs:0x28
    262b:	00 00 
    262d:	48 89 45 c8          	mov    QWORD PTR [rbp-0x38],rax
    2631:	31 c0                	xor    eax,eax
    2633:	48 85 ff             	test   rdi,rdi
    2636:	0f 84 f3 03 00 00    	je     2a2f <_Z14testCollisionsP8_IO_FILEPFj8string_tE8TestData+0x42f>
    263c:	4c 8d 65 b0          	lea    r12,[rbp-0x50]
    2640:	49 89 fd             	mov    r13,rdi
    2643:	48 89 d3             	mov    rbx,rdx
    2646:	49 89 ce             	mov    r14,rcx
    2649:	ba 02 00 00 00       	mov    edx,0x2
    264e:	4c 89 e7             	mov    rdi,r12
    2651:	e8 da ed ff ff       	call   1430 <_Z11hashMapCtorPFj8string_tEj>
    2656:	45 85 f6             	test   r14d,r14d
    2659:	74 25                	je     2680 <_Z14testCollisionsP8_IO_FILEPFj8string_tE8TestData+0x80>
    265b:	45 89 f6             	mov    r14d,r14d
    265e:	49 c1 e6 04          	shl    r14,0x4
    2662:	49 01 de             	add    r14,rbx
    2665:	0f 1f 00             	nop    DWORD PTR [rax]
    2668:	48 8b 33             	mov    rsi,QWORD PTR [rbx]
    266b:	48 8b 53 08          	mov    rdx,QWORD PTR [rbx+0x8]
    266f:	4c 89 e7             	mov    rdi,r12
    2672:	48 83 c3 10          	add    rbx,0x10
    2676:	e8 65 ee ff ff       	call   14e0 <_Z17hashMapAddElementP7HashMap8string_t>
    267b:	49 39 de             	cmp    r14,rbx
    267e:	75 e8                	jne    2668 <_Z14testCollisionsP8_IO_FILEPFj8string_tE8TestData+0x68>
    2680:	4c 89 e9             	mov    rcx,r13
    2683:	ba 19 00 00 00       	mov    edx,0x19
    2688:	be 01 00 00 00       	mov    esi,0x1
    268d:	48 8d 3d fc 1a 00 00 	lea    rdi,[rip+0x1afc]        # 4190 <_IO_stdin_used+0x190>
    2694:	e8 07 eb ff ff       	call   11a0 <fwrite@plt>
    2699:	8b 45 b8             	mov    eax,DWORD PTR [rbp-0x48]
    269c:	c5 f8 57 c0          	vxorps xmm0,xmm0,xmm0
    26a0:	c5 f8 28 d0          	vmovaps xmm2,xmm0
    26a4:	85 c0                	test   eax,eax
    26a6:	74 69                	je     2711 <_Z14testCollisionsP8_IO_FILEPFj8string_tE8TestData+0x111>
    26a8:	48 8b 45 b0          	mov    rax,QWORD PTR [rbp-0x50]
    26ac:	31 db                	xor    ebx,ebx
    26ae:	c5 e8 57 d2          	vxorps xmm2,xmm2,xmm2
    26b2:	4c 8d 3d f1 1a 00 00 	lea    r15,[rip+0x1af1]        # 41aa <_IO_stdin_used+0x1aa>
    26b9:	0f 1f 80 00 00 00 00 	nop    DWORD PTR [rax+0x0]
    26c0:	4c 8d 34 5b          	lea    r14,[rbx+rbx*2]
    26c4:	89 d9                	mov    ecx,ebx
    26c6:	4c 89 fa             	mov    rdx,r15
    26c9:	be 02 00 00 00       	mov    esi,0x2
    26ce:	49 c1 e6 03          	shl    r14,0x3
    26d2:	4c 89 ef             	mov    rdi,r13
    26d5:	c5 fa 11 55 90       	vmovss DWORD PTR [rbp-0x70],xmm2
    26da:	48 83 c3 01          	add    rbx,0x1
    26de:	46 8b 44 30 10       	mov    r8d,DWORD PTR [rax+r14*1+0x10]
    26e3:	31 c0                	xor    eax,eax
    26e5:	e8 96 ea ff ff       	call   1180 <__fprintf_chk@plt>
    26ea:	48 8b 45 b0          	mov    rax,QWORD PTR [rbp-0x50]
    26ee:	c5 d8 57 e4          	vxorps xmm4,xmm4,xmm4
    26f2:	c5 fa 10 55 90       	vmovss xmm2,DWORD PTR [rbp-0x70]
    26f7:	42 8b 54 30 10       	mov    edx,DWORD PTR [rax+r14*1+0x10]
    26fc:	c4 e1 da 2a c2       	vcvtsi2ss xmm0,xmm4,rdx
    2701:	8b 55 b8             	mov    edx,DWORD PTR [rbp-0x48]
    2704:	c5 ea 58 d0          	vaddss xmm2,xmm2,xmm0
    2708:	39 d3                	cmp    ebx,edx
    270a:	72 b4                	jb     26c0 <_Z14testCollisionsP8_IO_FILEPFj8string_tE8TestData+0xc0>
    270c:	c4 e1 da 2a c2       	vcvtsi2ss xmm0,xmm4,rdx
    2711:	c5 ea 5e d0          	vdivss xmm2,xmm2,xmm0
    2715:	bf 02 00 00 00       	mov    edi,0x2
    271a:	b8 01 00 00 00       	mov    eax,0x1
    271f:	48 8d 35 8b 1a 00 00 	lea    rsi,[rip+0x1a8b]        # 41b1 <_IO_stdin_used+0x1b1>
    2726:	c5 fa 11 55 90       	vmovss DWORD PTR [rbp-0x70],xmm2
    272b:	c5 ea 5a c2          	vcvtss2sd xmm0,xmm2,xmm2
    272f:	e8 fc e8 ff ff       	call   1030 <__printf_chk@plt>
    2734:	8b 75 b8             	mov    esi,DWORD PTR [rbp-0x48]
    2737:	85 f6                	test   esi,esi
    2739:	0f 84 c1 02 00 00    	je     2a00 <_Z14testCollisionsP8_IO_FILEPFj8string_tE8TestData+0x400>
    273f:	8d 46 ff             	lea    eax,[rsi-0x1]
    2742:	48 8b 7d b0          	mov    rdi,QWORD PTR [rbp-0x50]
    2746:	c5 fa 10 55 90       	vmovss xmm2,DWORD PTR [rbp-0x70]
    274b:	83 f8 06             	cmp    eax,0x6
    274e:	0f 86 c1 02 00 00    	jbe    2a15 <_Z14testCollisionsP8_IO_FILEPFj8string_tE8TestData+0x415>
    2754:	48 8d 47 10          	lea    rax,[rdi+0x10]
    2758:	c4 e2 7d 18 ea       	vbroadcastss ymm5,xmm2
    275d:	c5 c0 57 ff          	vxorps xmm7,xmm7,xmm7
    2761:	89 f2                	mov    edx,esi
    2763:	c4 e2 7d 18 25 a4 18 	vbroadcastss ymm4,DWORD PTR [rip+0x18a4]        # 4010 <_IO_stdin_used+0x10>
    276a:	00 00 
    276c:	c1 ea 03             	shr    edx,0x3
    276f:	48 b9 00 00 00 00 ff 	movabs rcx,0xffffffff00000000
    2776:	ff ff ff 
    2779:	4c 8d 04 52          	lea    r8,[rdx+rdx*2]
    277d:	ba ff ff 00 00       	mov    edx,0xffff
    2782:	49 c1 e0 06          	shl    r8,0x6
    2786:	c5 f9 6e da          	vmovd  xmm3,edx
    278a:	49 01 c0             	add    r8,rax
    278d:	c4 e2 7d 58 db       	vpbroadcastd ymm3,xmm3
    2792:	66 0f 1f 44 00 00    	nop    WORD PTR [rax+rax*1+0x0]
    2798:	8b 50 18             	mov    edx,DWORD PTR [rax+0x18]
    279b:	44 8b 08             	mov    r9d,DWORD PTR [rax]
    279e:	c5 c9 ef f6          	vpxor  xmm6,xmm6,xmm6
    27a2:	48 05 c0 00 00 00    	add    rax,0xc0
    27a8:	c5 fd 7f 75 90       	vmovdqa YMMWORD PTR [rbp-0x70],ymm6
    27ad:	48 c1 e2 20          	shl    rdx,0x20
    27b1:	49 09 d1             	or     r9,rdx
    27b4:	48 8b 55 98          	mov    rdx,QWORD PTR [rbp-0x68]
    27b8:	4c 89 4d 90          	mov    QWORD PTR [rbp-0x70],r9
    27bc:	44 8b 88 70 ff ff ff 	mov    r9d,DWORD PTR [rax-0x90]
    27c3:	48 21 ca             	and    rdx,rcx
    27c6:	4c 09 ca             	or     rdx,r9
    27c9:	44 8b 48 88          	mov    r9d,DWORD PTR [rax-0x78]
    27cd:	89 d2                	mov    edx,edx
    27cf:	49 c1 e1 20          	shl    r9,0x20
    27d3:	4c 09 ca             	or     rdx,r9
    27d6:	44 8b 48 a0          	mov    r9d,DWORD PTR [rax-0x60]
    27da:	48 89 55 98          	mov    QWORD PTR [rbp-0x68],rdx
    27de:	48 8b 55 a0          	mov    rdx,QWORD PTR [rbp-0x60]
    27e2:	48 21 ca             	and    rdx,rcx
    27e5:	4c 09 ca             	or     rdx,r9
    27e8:	44 8b 48 b8          	mov    r9d,DWORD PTR [rax-0x48]
    27ec:	89 d2                	mov    edx,edx
    27ee:	49 c1 e1 20          	shl    r9,0x20
    27f2:	4c 09 ca             	or     rdx,r9
    27f5:	44 8b 48 d0          	mov    r9d,DWORD PTR [rax-0x30]
    27f9:	48 89 55 a0          	mov    QWORD PTR [rbp-0x60],rdx
    27fd:	48 8b 55 a8          	mov    rdx,QWORD PTR [rbp-0x58]
    2801:	48 21 ca             	and    rdx,rcx
    2804:	4c 09 ca             	or     rdx,r9
    2807:	44 8b 48 e8          	mov    r9d,DWORD PTR [rax-0x18]
    280b:	89 d2                	mov    edx,edx
    280d:	49 c1 e1 20          	shl    r9,0x20
    2811:	4c 09 ca             	or     rdx,r9
    2814:	48 89 55 a8          	mov    QWORD PTR [rbp-0x58],rdx
    2818:	c5 fd 6f 75 90       	vmovdqa ymm6,YMMWORD PTR [rbp-0x70]
    281d:	c5 e5 db 45 90       	vpand  ymm0,ymm3,YMMWORD PTR [rbp-0x70]
    2822:	c5 f5 72 d6 10       	vpsrld ymm1,ymm6,0x10
    2827:	c5 fc 5b c9          	vcvtdq2ps ymm1,ymm1
    282b:	c5 f4 59 cc          	vmulps ymm1,ymm1,ymm4
    282f:	c5 fc 5b c0          	vcvtdq2ps ymm0,ymm0
    2833:	c5 fc 58 c1          	vaddps ymm0,ymm0,ymm1
    2837:	c5 fc 5c c5          	vsubps ymm0,ymm0,ymm5
    283b:	c5 fc 59 c0          	vmulps ymm0,ymm0,ymm0
    283f:	c5 c2 58 c8          	vaddss xmm1,xmm7,xmm0
    2843:	c5 f8 c6 f8 55       	vshufps xmm7,xmm0,xmm0,0x55
    2848:	c5 f8 c6 f0 ff       	vshufps xmm6,xmm0,xmm0,0xff
    284d:	c5 f2 58 cf          	vaddss xmm1,xmm1,xmm7
    2851:	c5 f8 15 f8          	vunpckhps xmm7,xmm0,xmm0
    2855:	c4 e3 7d 19 c0 01    	vextractf128 xmm0,ymm0,0x1
    285b:	c5 f2 58 cf          	vaddss xmm1,xmm1,xmm7
    285f:	c5 f2 58 ce          	vaddss xmm1,xmm1,xmm6
    2863:	c5 f8 c6 f0 55       	vshufps xmm6,xmm0,xmm0,0x55
    2868:	c5 f2 58 c8          	vaddss xmm1,xmm1,xmm0
    286c:	c5 f2 58 ce          	vaddss xmm1,xmm1,xmm6
    2870:	c5 f8 15 f0          	vunpckhps xmm6,xmm0,xmm0
    2874:	c5 f8 c6 c0 ff       	vshufps xmm0,xmm0,xmm0,0xff
    2879:	c5 f2 58 ce          	vaddss xmm1,xmm1,xmm6
    287d:	c5 f2 58 f8          	vaddss xmm7,xmm1,xmm0
    2881:	49 39 c0             	cmp    r8,rax
    2884:	0f 85 0e ff ff ff    	jne    2798 <_Z14testCollisionsP8_IO_FILEPFj8string_tE8TestData+0x198>
    288a:	89 f0                	mov    eax,esi
    288c:	83 e0 f8             	and    eax,0xfffffff8
    288f:	40 f6 c6 07          	test   sil,0x7
    2893:	0f 84 77 01 00 00    	je     2a10 <_Z14testCollisionsP8_IO_FILEPFj8string_tE8TestData+0x410>
    2899:	c5 f8 77             	vzeroupper
    289c:	89 f1                	mov    ecx,esi
    289e:	29 c1                	sub    ecx,eax
    28a0:	8d 51 ff             	lea    edx,[rcx-0x1]
    28a3:	83 fa 02             	cmp    edx,0x2
    28a6:	0f 86 8b 00 00 00    	jbe    2937 <_Z14testCollisionsP8_IO_FILEPFj8string_tE8TestData+0x337>
    28ac:	c4 e2 79 18 1d 5b 17 	vbroadcastss xmm3,DWORD PTR [rip+0x175b]        # 4010 <_IO_stdin_used+0x10>
    28b3:	00 00 
    28b5:	89 c2                	mov    edx,eax
    28b7:	bb ff ff 00 00       	mov    ebx,0xffff
    28bc:	48 8d 14 52          	lea    rdx,[rdx+rdx*2]
    28c0:	c5 f9 6e cb          	vmovd  xmm1,ebx
    28c4:	c5 f9 6e 44 d7 10    	vmovd  xmm0,DWORD PTR [rdi+rdx*8+0x10]
    28ca:	c4 e3 79 22 44 d7 28 	vpinsrd xmm0,xmm0,DWORD PTR [rdi+rdx*8+0x28],0x1
    28d1:	01 
    28d2:	c5 f9 70 c9 00       	vpshufd xmm1,xmm1,0x0
    28d7:	c4 e3 79 22 44 d7 40 	vpinsrd xmm0,xmm0,DWORD PTR [rdi+rdx*8+0x40],0x2
    28de:	02 
    28df:	c4 e3 79 22 44 d7 58 	vpinsrd xmm0,xmm0,DWORD PTR [rdi+rdx*8+0x58],0x3
    28e6:	03 
    28e7:	89 ca                	mov    edx,ecx
    28e9:	83 e2 fc             	and    edx,0xfffffffc
    28ec:	c5 f9 db c9          	vpand  xmm1,xmm0,xmm1
    28f0:	c5 f9 72 d0 10       	vpsrld xmm0,xmm0,0x10
    28f5:	01 d0                	add    eax,edx
    28f7:	83 e1 03             	and    ecx,0x3
    28fa:	c5 f8 5b c0          	vcvtdq2ps xmm0,xmm0
    28fe:	c5 f8 59 c3          	vmulps xmm0,xmm0,xmm3
    2902:	c5 f8 5b c9          	vcvtdq2ps xmm1,xmm1
    2906:	c5 f0 58 c8          	vaddps xmm1,xmm1,xmm0
    290a:	c5 e8 c6 c2 00       	vshufps xmm0,xmm2,xmm2,0x0
    290f:	c5 f0 5c c8          	vsubps xmm1,xmm1,xmm0
    2913:	c5 f0 59 c9          	vmulps xmm1,xmm1,xmm1
    2917:	c5 c2 58 c1          	vaddss xmm0,xmm7,xmm1
    291b:	c5 f0 c6 d9 55       	vshufps xmm3,xmm1,xmm1,0x55
    2920:	c5 fa 58 c3          	vaddss xmm0,xmm0,xmm3
    2924:	c5 f0 15 d9          	vunpckhps xmm3,xmm1,xmm1
    2928:	c5 f0 c6 c9 ff       	vshufps xmm1,xmm1,xmm1,0xff
    292d:	c5 fa 58 c3          	vaddss xmm0,xmm0,xmm3
    2931:	c5 fa 58 f9          	vaddss xmm7,xmm0,xmm1
    2935:	74 5f                	je     2996 <_Z14testCollisionsP8_IO_FILEPFj8string_tE8TestData+0x396>
    2937:	89 c2                	mov    edx,eax
    2939:	c5 d0 57 ed          	vxorps xmm5,xmm5,xmm5
    293d:	48 8d 14 52          	lea    rdx,[rdx+rdx*2]
    2941:	8b 54 d7 10          	mov    edx,DWORD PTR [rdi+rdx*8+0x10]
    2945:	c4 e1 d2 2a c2       	vcvtsi2ss xmm0,xmm5,rdx
    294a:	8d 50 01             	lea    edx,[rax+0x1]
    294d:	c5 fa 5c c2          	vsubss xmm0,xmm0,xmm2
    2951:	c5 fa 59 c0          	vmulss xmm0,xmm0,xmm0
    2955:	c5 c2 58 f8          	vaddss xmm7,xmm7,xmm0
    2959:	39 f2                	cmp    edx,esi
    295b:	73 39                	jae    2996 <_Z14testCollisionsP8_IO_FILEPFj8string_tE8TestData+0x396>
    295d:	48 8d 14 52          	lea    rdx,[rdx+rdx*2]
    2961:	83 c0 02             	add    eax,0x2
    2964:	8b 54 d7 10          	mov    edx,DWORD PTR [rdi+rdx*8+0x10]
    2968:	c4 e1 d2 2a c2       	vcvtsi2ss xmm0,xmm5,rdx
    296d:	c5 fa 5c c2          	vsubss xmm0,xmm0,xmm2
    2971:	c5 fa 59 c0          	vmulss xmm0,xmm0,xmm0
    2975:	c5 c2 58 f8          	vaddss xmm7,xmm7,xmm0
    2979:	39 f0                	cmp    eax,esi
    297b:	73 19                	jae    2996 <_Z14testCollisionsP8_IO_FILEPFj8string_tE8TestData+0x396>
    297d:	48 8d 04 40          	lea    rax,[rax+rax*2]
    2981:	8b 44 c7 10          	mov    eax,DWORD PTR [rdi+rax*8+0x10]
    2985:	c4 e1 d2 2a c0       	vcvtsi2ss xmm0,xmm5,rax
    298a:	c5 fa 5c c2          	vsubss xmm0,xmm0,xmm2
    298e:	c5 fa 59 c0          	vmulss xmm0,xmm0,xmm0
    2992:	c5 c2 58 f8          	vaddss xmm7,xmm7,xmm0
    2996:	c5 d0 57 ed          	vxorps xmm5,xmm5,xmm5
    299a:	c4 e1 d2 2a c6       	vcvtsi2ss xmm0,xmm5,rsi
    299f:	c5 c2 5e f8          	vdivss xmm7,xmm7,xmm0
    29a3:	c5 f8 57 c0          	vxorps xmm0,xmm0,xmm0
    29a7:	c5 f8 2e c7          	vucomiss xmm0,xmm7
    29ab:	77 73                	ja     2a20 <_Z14testCollisionsP8_IO_FILEPFj8string_tE8TestData+0x420>
    29ad:	c5 c2 51 ff          	vsqrtss xmm7,xmm7,xmm7
    29b1:	bf 02 00 00 00       	mov    edi,0x2
    29b6:	48 8d 35 0e 18 00 00 	lea    rsi,[rip+0x180e]        # 41cb <_IO_stdin_used+0x1cb>
    29bd:	b8 01 00 00 00       	mov    eax,0x1
    29c2:	c5 c2 5a c7          	vcvtss2sd xmm0,xmm7,xmm7
    29c6:	e8 65 e6 ff ff       	call   1030 <__printf_chk@plt>
    29cb:	4c 89 e7             	mov    rdi,r12
    29ce:	e8 fd ee ff ff       	call   18d0 <_Z11hashMapDtorP7HashMap>
    29d3:	48 8b 45 c8          	mov    rax,QWORD PTR [rbp-0x38]
    29d7:	64 48 2b 04 25 28 00 	sub    rax,QWORD PTR fs:0x28
    29de:	00 00 
    29e0:	75 6c                	jne    2a4e <_Z14testCollisionsP8_IO_FILEPFj8string_tE8TestData+0x44e>
    29e2:	48 83 c4 40          	add    rsp,0x40
    29e6:	5b                   	pop    rbx
    29e7:	41 5a                	pop    r10
    29e9:	41 5c                	pop    r12
    29eb:	41 5d                	pop    r13
    29ed:	41 5e                	pop    r14
    29ef:	41 5f                	pop    r15
    29f1:	5d                   	pop    rbp
    29f2:	49 8d 62 f8          	lea    rsp,[r10-0x8]
    29f6:	c3                   	ret
    29f7:	66 0f 1f 84 00 00 00 	nop    WORD PTR [rax+rax*1+0x0]
    29fe:	00 00 
    2a00:	c5 c0 57 ff          	vxorps xmm7,xmm7,xmm7
    2a04:	c5 c2 5e ff          	vdivss xmm7,xmm7,xmm7
    2a08:	eb a3                	jmp    29ad <_Z14testCollisionsP8_IO_FILEPFj8string_tE8TestData+0x3ad>
    2a0a:	66 0f 1f 44 00 00    	nop    WORD PTR [rax+rax*1+0x0]
    2a10:	c5 f8 77             	vzeroupper
    2a13:	eb 81                	jmp    2996 <_Z14testCollisionsP8_IO_FILEPFj8string_tE8TestData+0x396>
    2a15:	c5 c0 57 ff          	vxorps xmm7,xmm7,xmm7
    2a19:	31 c0                	xor    eax,eax
    2a1b:	e9 7c fe ff ff       	jmp    289c <_Z14testCollisionsP8_IO_FILEPFj8string_tE8TestData+0x29c>
    2a20:	c5 f8 28 c7          	vmovaps xmm0,xmm7
    2a24:	e8 67 e7 ff ff       	call   1190 <sqrtf@plt>
    2a29:	c5 f8 28 f8          	vmovaps xmm7,xmm0
    2a2d:	eb 82                	jmp    29b1 <_Z14testCollisionsP8_IO_FILEPFj8string_tE8TestData+0x3b1>
    2a2f:	48 8d 0d 4a 1a 00 00 	lea    rcx,[rip+0x1a4a]        # 4480 <_IO_stdin_used+0x480>
    2a36:	ba 44 00 00 00       	mov    edx,0x44
    2a3b:	48 8d 35 2d 17 00 00 	lea    rsi,[rip+0x172d]        # 416f <_IO_stdin_used+0x16f>
    2a42:	48 8d 3d 42 17 00 00 	lea    rdi,[rip+0x1742]        # 418b <_IO_stdin_used+0x18b>
    2a49:	e8 22 e6 ff ff       	call   1070 <__assert_fail@plt>
    2a4e:	e8 8d e6 ff ff       	call   10e0 <__stack_chk_fail@plt>
    2a53:	66 66 2e 0f 1f 84 00 	data16 cs nop WORD PTR [rax+rax*1+0x0]
    2a5a:	00 00 00 00 
    2a5e:	66 90                	xchg   ax,ax

0000000000002a60 <_Z14testSearchTimeP8_IO_FILEPFj8string_tE8TestDataj>:
    2a60:	f3 0f 1e fa          	endbr64
    2a64:	41 55                	push   r13
    2a66:	4c 8d 6c 24 10       	lea    r13,[rsp+0x10]
    2a6b:	48 83 e4 e0          	and    rsp,0xffffffffffffffe0
    2a6f:	41 ff 75 f8          	push   QWORD PTR [r13-0x8]
    2a73:	55                   	push   rbp
    2a74:	48 89 e5             	mov    rbp,rsp
    2a77:	41 57                	push   r15
    2a79:	41 56                	push   r14
    2a7b:	41 55                	push   r13
    2a7d:	41 54                	push   r12
    2a7f:	53                   	push   rbx
    2a80:	48 83 ec 68          	sub    rsp,0x68
    2a84:	48 89 bd 78 ff ff ff 	mov    QWORD PTR [rbp-0x88],rdi
    2a8b:	44 89 45 8c          	mov    DWORD PTR [rbp-0x74],r8d
    2a8f:	64 48 8b 04 25 28 00 	mov    rax,QWORD PTR fs:0x28
    2a96:	00 00 
    2a98:	48 89 45 c8          	mov    QWORD PTR [rbp-0x38],rax
    2a9c:	31 c0                	xor    eax,eax
    2a9e:	48 85 ff             	test   rdi,rdi
    2aa1:	0f 84 d7 03 00 00    	je     2e7e <_Z14testSearchTimeP8_IO_FILEPFj8string_tE8TestDataj+0x41e>
    2aa7:	49 89 f7             	mov    r15,rsi
    2aaa:	bf 0a 00 00 00       	mov    edi,0xa
    2aaf:	4c 8d 65 b0          	lea    r12,[rbp-0x50]
    2ab3:	49 89 d5             	mov    r13,rdx
    2ab6:	48 89 cb             	mov    rbx,rcx
    2ab9:	41 89 ce             	mov    r14d,ecx
    2abc:	e8 ff e5 ff ff       	call   10c0 <srand@plt>
    2ac1:	ba 02 00 00 00       	mov    edx,0x2
    2ac6:	4c 89 fe             	mov    rsi,r15
    2ac9:	4c 89 e7             	mov    rdi,r12
    2acc:	e8 5f e9 ff ff       	call   1430 <_Z11hashMapCtorPFj8string_tEj>
    2ad1:	85 db                	test   ebx,ebx
    2ad3:	74 24                	je     2af9 <_Z14testSearchTimeP8_IO_FILEPFj8string_tE8TestDataj+0x99>
    2ad5:	89 db                	mov    ebx,ebx
    2ad7:	4d 89 ef             	mov    r15,r13
    2ada:	48 c1 e3 04          	shl    rbx,0x4
    2ade:	4c 01 eb             	add    rbx,r13
    2ae1:	49 8b 37             	mov    rsi,QWORD PTR [r15]
    2ae4:	49 8b 57 08          	mov    rdx,QWORD PTR [r15+0x8]
    2ae8:	4c 89 e7             	mov    rdi,r12
    2aeb:	49 83 c7 10          	add    r15,0x10
    2aef:	e8 ec e9 ff ff       	call   14e0 <_Z17hashMapAddElementP7HashMap8string_t>
    2af4:	49 39 df             	cmp    r15,rbx
    2af7:	75 e8                	jne    2ae1 <_Z14testSearchTimeP8_IO_FILEPFj8string_tE8TestDataj+0x81>
    2af9:	be 04 00 00 00       	mov    esi,0x4
    2afe:	bf 40 42 0f 00       	mov    edi,0xf4240
    2b03:	e8 78 e5 ff ff       	call   1080 <calloc@plt>
    2b08:	be 08 00 00 00       	mov    esi,0x8
    2b0d:	48 89 45 98          	mov    QWORD PTR [rbp-0x68],rax
    2b11:	49 89 c7             	mov    r15,rax
    2b14:	8b 45 8c             	mov    eax,DWORD PTR [rbp-0x74]
    2b17:	4c 89 fb             	mov    rbx,r15
    2b1a:	48 89 c7             	mov    rdi,rax
    2b1d:	48 89 45 80          	mov    QWORD PTR [rbp-0x80],rax
    2b21:	48 81 c3 00 09 3d 00 	add    rbx,0x3d0900
    2b28:	e8 53 e5 ff ff       	call   1080 <calloc@plt>
    2b2d:	48 89 45 90          	mov    QWORD PTR [rbp-0x70],rax
    2b31:	0f 1f 80 00 00 00 00 	nop    DWORD PTR [rax+0x0]
    2b38:	e8 03 e5 ff ff       	call   1040 <rand@plt>
    2b3d:	31 d2                	xor    edx,edx
    2b3f:	49 83 c7 04          	add    r15,0x4
    2b43:	41 f7 f6             	div    r14d
    2b46:	41 89 57 fc          	mov    DWORD PTR [r15-0x4],edx
    2b4a:	49 39 df             	cmp    r15,rbx
    2b4d:	75 e9                	jne    2b38 <_Z14testSearchTimeP8_IO_FILEPFj8string_tE8TestDataj+0xd8>
    2b4f:	8b 45 8c             	mov    eax,DWORD PTR [rbp-0x74]
    2b52:	85 c0                	test   eax,eax
    2b54:	0f 84 b9 02 00 00    	je     2e13 <_Z14testSearchTimeP8_IO_FILEPFj8string_tE8TestDataj+0x3b3>
    2b5a:	4c 8b 75 90          	mov    r14,QWORD PTR [rbp-0x70]
    2b5e:	48 8b 45 80          	mov    rax,QWORD PTR [rbp-0x80]
    2b62:	49 8d 04 c6          	lea    rax,[r14+rax*8]
    2b66:	4c 89 b5 70 ff ff ff 	mov    QWORD PTR [rbp-0x90],r14
    2b6d:	48 89 45 a0          	mov    QWORD PTR [rbp-0x60],rax
    2b71:	e8 9a e5 ff ff       	call   1110 <_ZNSt6chrono3_V212steady_clock3nowEv@plt>
    2b76:	4c 8b 7d 98          	mov    r15,QWORD PTR [rbp-0x68]
    2b7a:	48 89 45 a8          	mov    QWORD PTR [rbp-0x58],rax
    2b7e:	66 90                	xchg   ax,ax
    2b80:	41 8b 07             	mov    eax,DWORD PTR [r15]
    2b83:	4c 89 e7             	mov    rdi,r12
    2b86:	49 83 c7 04          	add    r15,0x4
    2b8a:	48 c1 e0 04          	shl    rax,0x4
    2b8e:	4c 01 e8             	add    rax,r13
    2b91:	48 8b 30             	mov    rsi,QWORD PTR [rax]
    2b94:	48 8b 50 08          	mov    rdx,QWORD PTR [rax+0x8]
    2b98:	e8 c3 ec ff ff       	call   1860 <_Z20hashMapSearchElementP7HashMap8string_t>
    2b9d:	4c 39 fb             	cmp    rbx,r15
    2ba0:	75 de                	jne    2b80 <_Z14testSearchTimeP8_IO_FILEPFj8string_tE8TestDataj+0x120>
    2ba2:	e8 69 e5 ff ff       	call   1110 <_ZNSt6chrono3_V212steady_clock3nowEv@plt>
    2ba7:	48 8b 4d a8          	mov    rcx,QWORD PTR [rbp-0x58]
    2bab:	c5 d1 57 ed          	vxorpd xmm5,xmm5,xmm5
    2baf:	49 83 c6 08          	add    r14,0x8
    2bb3:	48 29 c8             	sub    rax,rcx
    2bb6:	48 89 c1             	mov    rcx,rax
    2bb9:	48 b8 cf f7 53 e3 a5 	movabs rax,0x20c49ba5e353f7cf
    2bc0:	9b c4 20 
    2bc3:	48 f7 e9             	imul   rcx
    2bc6:	48 c1 f9 3f          	sar    rcx,0x3f
    2bca:	48 8b 45 a0          	mov    rax,QWORD PTR [rbp-0x60]
    2bce:	48 c1 fa 07          	sar    rdx,0x7
    2bd2:	48 29 ca             	sub    rdx,rcx
    2bd5:	c4 e1 d3 2a c2       	vcvtsi2sd xmm0,xmm5,rdx
    2bda:	c4 c1 7b 11 46 f8    	vmovsd QWORD PTR [r14-0x8],xmm0
    2be0:	49 39 c6             	cmp    r14,rax
    2be3:	75 8c                	jne    2b71 <_Z14testSearchTimeP8_IO_FILEPFj8string_tE8TestDataj+0x111>
    2be5:	4c 8b 85 70 ff ff ff 	mov    r8,QWORD PTR [rbp-0x90]
    2bec:	4c 89 e7             	mov    rdi,r12
    2bef:	48 8d 1d 0e 16 00 00 	lea    rbx,[rip+0x160e]        # 4204 <_IO_stdin_used+0x204>
    2bf6:	45 31 e4             	xor    r12d,r12d
    2bf9:	4c 89 45 a8          	mov    QWORD PTR [rbp-0x58],r8
    2bfd:	e8 ce ec ff ff       	call   18d0 <_Z11hashMapDtorP7HashMap>
    2c02:	ba 13 00 00 00       	mov    edx,0x13
    2c07:	4c 8b bd 78 ff ff ff 	mov    r15,QWORD PTR [rbp-0x88]
    2c0e:	be 01 00 00 00       	mov    esi,0x1
    2c13:	48 8d 3d cb 15 00 00 	lea    rdi,[rip+0x15cb]        # 41e5 <_IO_stdin_used+0x1e5>
    2c1a:	4c 89 f9             	mov    rcx,r15
    2c1d:	e8 7e e5 ff ff       	call   11a0 <fwrite@plt>
    2c22:	4c 8b 45 a8          	mov    r8,QWORD PTR [rbp-0x58]
    2c26:	4c 8b 6d 80          	mov    r13,QWORD PTR [rbp-0x80]
    2c2a:	c5 e9 57 d2          	vxorpd xmm2,xmm2,xmm2
    2c2e:	4c 8b 75 90          	mov    r14,QWORD PTR [rbp-0x70]
    2c32:	4c 89 45 80          	mov    QWORD PTR [rbp-0x80],r8
    2c36:	c4 81 7b 10 04 e6    	vmovsd xmm0,QWORD PTR [r14+r12*8]
    2c3c:	44 89 e1             	mov    ecx,r12d
    2c3f:	48 89 da             	mov    rdx,rbx
    2c42:	4c 89 ff             	mov    rdi,r15
    2c45:	be 02 00 00 00       	mov    esi,0x2
    2c4a:	b8 01 00 00 00       	mov    eax,0x1
    2c4f:	c5 fb 11 55 a0       	vmovsd QWORD PTR [rbp-0x60],xmm2
    2c54:	49 83 c4 01          	add    r12,0x1
    2c58:	c5 fb 11 45 a8       	vmovsd QWORD PTR [rbp-0x58],xmm0
    2c5d:	e8 1e e5 ff ff       	call   1180 <__fprintf_chk@plt>
    2c62:	c5 fb 10 45 a8       	vmovsd xmm0,QWORD PTR [rbp-0x58]
    2c67:	c5 fb 10 55 a0       	vmovsd xmm2,QWORD PTR [rbp-0x60]
    2c6c:	c5 eb 58 d0          	vaddsd xmm2,xmm2,xmm0
    2c70:	4d 39 e5             	cmp    r13,r12
    2c73:	75 c1                	jne    2c36 <_Z14testSearchTimeP8_IO_FILEPFj8string_tE8TestDataj+0x1d6>
    2c75:	8b 4d 8c             	mov    ecx,DWORD PTR [rbp-0x74]
    2c78:	c5 c1 57 ff          	vxorpd xmm7,xmm7,xmm7
    2c7c:	4c 8b 45 80          	mov    r8,QWORD PTR [rbp-0x80]
    2c80:	c5 c3 2a c1          	vcvtsi2sd xmm0,xmm7,ecx
    2c84:	89 c8                	mov    eax,ecx
    2c86:	83 e8 01             	sub    eax,0x1
    2c89:	c5 eb 5e e8          	vdivsd xmm5,xmm2,xmm0
    2c8d:	83 f8 02             	cmp    eax,0x2
    2c90:	0f 86 be 01 00 00    	jbe    2e54 <_Z14testSearchTimeP8_IO_FILEPFj8string_tE8TestDataj+0x3f4>
    2c96:	89 c8                	mov    eax,ecx
    2c98:	48 8b 4d 90          	mov    rcx,QWORD PTR [rbp-0x70]
    2c9c:	c4 e2 7d 19 e5       	vbroadcastsd ymm4,xmm5
    2ca1:	c5 f9 57 c0          	vxorpd xmm0,xmm0,xmm0
    2ca5:	c1 e8 02             	shr    eax,0x2
    2ca8:	48 c1 e0 05          	shl    rax,0x5
    2cac:	48 01 c8             	add    rax,rcx
    2caf:	c4 c1 7d 10 30       	vmovupd ymm6,YMMWORD PTR [r8]
    2cb4:	49 83 c0 20          	add    r8,0x20
    2cb8:	c5 cd 5c cc          	vsubpd ymm1,ymm6,ymm4
    2cbc:	c5 f5 59 d1          	vmulpd ymm2,ymm1,ymm1
    2cc0:	c5 eb 58 c0          	vaddsd xmm0,xmm2,xmm0
    2cc4:	c5 e9 15 da          	vunpckhpd xmm3,xmm2,xmm2
    2cc8:	c4 e3 7d 19 d1 01    	vextractf128 xmm1,ymm2,0x1
    2cce:	c5 e3 58 d8          	vaddsd xmm3,xmm3,xmm0
    2cd2:	c5 f3 58 c3          	vaddsd xmm0,xmm1,xmm3
    2cd6:	c5 f1 15 c9          	vunpckhpd xmm1,xmm1,xmm1
    2cda:	c5 fb 58 c1          	vaddsd xmm0,xmm0,xmm1
    2cde:	4c 39 c0             	cmp    rax,r8
    2ce1:	75 cc                	jne    2caf <_Z14testSearchTimeP8_IO_FILEPFj8string_tE8TestDataj+0x24f>
    2ce3:	8b 45 8c             	mov    eax,DWORD PTR [rbp-0x74]
    2ce6:	a8 03                	test   al,0x3
    2ce8:	0f 84 1d 01 00 00    	je     2e0b <_Z14testSearchTimeP8_IO_FILEPFj8string_tE8TestDataj+0x3ab>
    2cee:	83 e0 fc             	and    eax,0xfffffffc
    2cf1:	c5 f8 77             	vzeroupper
    2cf4:	8b 55 8c             	mov    edx,DWORD PTR [rbp-0x74]
    2cf7:	29 c2                	sub    edx,eax
    2cf9:	83 fa 01             	cmp    edx,0x1
    2cfc:	74 2d                	je     2d2b <_Z14testSearchTimeP8_IO_FILEPFj8string_tE8TestDataj+0x2cb>
    2cfe:	48 8b 7d 90          	mov    rdi,QWORD PTR [rbp-0x70]
    2d02:	89 c1                	mov    ecx,eax
    2d04:	c5 fb 12 dd          	vmovddup xmm3,xmm5
    2d08:	c5 f9 10 0c cf       	vmovupd xmm1,XMMWORD PTR [rdi+rcx*8]
    2d0d:	c5 f1 5c cb          	vsubpd xmm1,xmm1,xmm3
    2d11:	c5 f1 59 c9          	vmulpd xmm1,xmm1,xmm1
    2d15:	c5 fb 58 c1          	vaddsd xmm0,xmm0,xmm1
    2d19:	c5 f1 15 c9          	vunpckhpd xmm1,xmm1,xmm1
    2d1d:	c5 f3 58 c0          	vaddsd xmm0,xmm1,xmm0
    2d21:	f6 c2 01             	test   dl,0x1
    2d24:	74 1a                	je     2d40 <_Z14testSearchTimeP8_IO_FILEPFj8string_tE8TestDataj+0x2e0>
    2d26:	83 e2 fe             	and    edx,0xfffffffe
    2d29:	01 d0                	add    eax,edx
    2d2b:	48 8b 4d 90          	mov    rcx,QWORD PTR [rbp-0x70]
    2d2f:	c5 fb 10 0c c1       	vmovsd xmm1,QWORD PTR [rcx+rax*8]
    2d34:	c5 f3 5c cd          	vsubsd xmm1,xmm1,xmm5
    2d38:	c5 f3 59 c9          	vmulsd xmm1,xmm1,xmm1
    2d3c:	c5 fb 58 c1          	vaddsd xmm0,xmm0,xmm1
    2d40:	c5 c0 57 ff          	vxorps xmm7,xmm7,xmm7
    2d44:	c5 fb 5a c0          	vcvtsd2ss xmm0,xmm0,xmm0
    2d48:	c5 c2 2a 4d 8c       	vcvtsi2ss xmm1,xmm7,DWORD PTR [rbp-0x74]
    2d4d:	c5 fa 5e c1          	vdivss xmm0,xmm0,xmm1
    2d51:	c5 f0 57 c9          	vxorps xmm1,xmm1,xmm1
    2d55:	c5 f8 2e c8          	vucomiss xmm1,xmm0
    2d59:	0f 87 43 01 00 00    	ja     2ea2 <_Z14testSearchTimeP8_IO_FILEPFj8string_tE8TestDataj+0x442>
    2d5f:	c5 fa 51 c0          	vsqrtss xmm0,xmm0,xmm0
    2d63:	c5 fa 5a f8          	vcvtss2sd xmm7,xmm0,xmm0
    2d67:	48 8d 35 9f 14 00 00 	lea    rsi,[rip+0x149f]        # 420d <_IO_stdin_used+0x20d>
    2d6e:	c4 e1 f9 7e fb       	vmovq  rbx,xmm7
    2d73:	c5 d3 10 c5          	vmovsd xmm0,xmm5,xmm5
    2d77:	bf 02 00 00 00       	mov    edi,0x2
    2d7c:	b8 01 00 00 00       	mov    eax,0x1
    2d81:	c5 fb 11 6d a8       	vmovsd QWORD PTR [rbp-0x58],xmm5
    2d86:	e8 a5 e2 ff ff       	call   1030 <__printf_chk@plt>
    2d8b:	c4 e1 f9 6e c3       	vmovq  xmm0,rbx
    2d90:	bf 02 00 00 00       	mov    edi,0x2
    2d95:	48 8d 35 8f 14 00 00 	lea    rsi,[rip+0x148f]        # 422b <_IO_stdin_used+0x22b>
    2d9c:	b8 01 00 00 00       	mov    eax,0x1
    2da1:	e8 8a e2 ff ff       	call   1030 <__printf_chk@plt>
    2da6:	c5 fb 10 6d a8       	vmovsd xmm5,QWORD PTR [rbp-0x58]
    2dab:	c4 e1 f9 6e e3       	vmovq  xmm4,rbx
    2db0:	bf 02 00 00 00       	mov    edi,0x2
    2db5:	48 8d 35 8d 14 00 00 	lea    rsi,[rip+0x148d]        # 4249 <_IO_stdin_used+0x249>
    2dbc:	b8 01 00 00 00       	mov    eax,0x1
    2dc1:	c5 db 5e c5          	vdivsd xmm0,xmm4,xmm5
    2dc5:	c5 fb 59 05 1b 19 00 	vmulsd xmm0,xmm0,QWORD PTR [rip+0x191b]        # 46e8 <_IO_stdin_used+0x6e8>
    2dcc:	00 
    2dcd:	e8 5e e2 ff ff       	call   1030 <__printf_chk@plt>
    2dd2:	48 8b 7d 90          	mov    rdi,QWORD PTR [rbp-0x70]
    2dd6:	e8 25 e3 ff ff       	call   1100 <free@plt>
    2ddb:	48 8b 45 c8          	mov    rax,QWORD PTR [rbp-0x38]
    2ddf:	64 48 2b 04 25 28 00 	sub    rax,QWORD PTR fs:0x28
    2de6:	00 00 
    2de8:	0f 85 af 00 00 00    	jne    2e9d <_Z14testSearchTimeP8_IO_FILEPFj8string_tE8TestDataj+0x43d>
    2dee:	48 8b 7d 98          	mov    rdi,QWORD PTR [rbp-0x68]
    2df2:	48 83 c4 68          	add    rsp,0x68
    2df6:	5b                   	pop    rbx
    2df7:	41 5c                	pop    r12
    2df9:	41 5d                	pop    r13
    2dfb:	41 5e                	pop    r14
    2dfd:	41 5f                	pop    r15
    2dff:	5d                   	pop    rbp
    2e00:	49 8d 65 f0          	lea    rsp,[r13-0x10]
    2e04:	41 5d                	pop    r13
    2e06:	e9 f5 e2 ff ff       	jmp    1100 <free@plt>
    2e0b:	c5 f8 77             	vzeroupper
    2e0e:	e9 2d ff ff ff       	jmp    2d40 <_Z14testSearchTimeP8_IO_FILEPFj8string_tE8TestDataj+0x2e0>
    2e13:	4c 89 e7             	mov    rdi,r12
    2e16:	e8 b5 ea ff ff       	call   18d0 <_Z11hashMapDtorP7HashMap>
    2e1b:	ba 13 00 00 00       	mov    edx,0x13
    2e20:	48 8b 8d 78 ff ff ff 	mov    rcx,QWORD PTR [rbp-0x88]
    2e27:	be 01 00 00 00       	mov    esi,0x1
    2e2c:	48 8d 3d b2 13 00 00 	lea    rdi,[rip+0x13b2]        # 41e5 <_IO_stdin_used+0x1e5>
    2e33:	e8 68 e3 ff ff       	call   11a0 <fwrite@plt>
    2e38:	c5 e9 57 d2          	vxorpd xmm2,xmm2,xmm2
    2e3c:	48 83 7d 90 00       	cmp    QWORD PTR [rbp-0x70],0x0
    2e41:	c5 eb 5e ea          	vdivsd xmm5,xmm2,xmm2
    2e45:	74 18                	je     2e5f <_Z14testSearchTimeP8_IO_FILEPFj8string_tE8TestDataj+0x3ff>
    2e47:	c5 f8 57 c0          	vxorps xmm0,xmm0,xmm0
    2e4b:	c5 fa 5e c0          	vdivss xmm0,xmm0,xmm0
    2e4f:	e9 0b ff ff ff       	jmp    2d5f <_Z14testSearchTimeP8_IO_FILEPFj8string_tE8TestDataj+0x2ff>
    2e54:	c5 f9 57 c0          	vxorpd xmm0,xmm0,xmm0
    2e58:	31 c0                	xor    eax,eax
    2e5a:	e9 95 fe ff ff       	jmp    2cf4 <_Z14testSearchTimeP8_IO_FILEPFj8string_tE8TestDataj+0x294>
    2e5f:	48 8d 0d 82 16 00 00 	lea    rcx,[rip+0x1682]        # 44e8 <_IO_stdin_used+0x4e8>
    2e66:	ba a9 00 00 00       	mov    edx,0xa9
    2e6b:	48 8d 35 fd 12 00 00 	lea    rsi,[rip+0x12fd]        # 416f <_IO_stdin_used+0x16f>
    2e72:	48 8d 3d 80 13 00 00 	lea    rdi,[rip+0x1380]        # 41f9 <_IO_stdin_used+0x1f9>
    2e79:	e8 f2 e1 ff ff       	call   1070 <__assert_fail@plt>
    2e7e:	48 8d 0d 2b 16 00 00 	lea    rcx,[rip+0x162b]        # 44b0 <_IO_stdin_used+0x4b0>
    2e85:	ba 5e 00 00 00       	mov    edx,0x5e
    2e8a:	48 8d 35 de 12 00 00 	lea    rsi,[rip+0x12de]        # 416f <_IO_stdin_used+0x16f>
    2e91:	48 8d 3d f3 12 00 00 	lea    rdi,[rip+0x12f3]        # 418b <_IO_stdin_used+0x18b>
    2e98:	e8 d3 e1 ff ff       	call   1070 <__assert_fail@plt>
    2e9d:	e8 3e e2 ff ff       	call   10e0 <__stack_chk_fail@plt>
    2ea2:	c5 fb 11 6d a8       	vmovsd QWORD PTR [rbp-0x58],xmm5
    2ea7:	e8 e4 e2 ff ff       	call   1190 <sqrtf@plt>
    2eac:	c5 fb 10 6d a8       	vmovsd xmm5,QWORD PTR [rbp-0x58]
    2eb1:	e9 ad fe ff ff       	jmp    2d63 <_Z14testSearchTimeP8_IO_FILEPFj8string_tE8TestDataj+0x303>
    2eb6:	66 2e 0f 1f 84 00 00 	cs nop WORD PTR [rax+rax*1+0x0]
    2ebd:	00 00 00 

0000000000002ec0 <_Z4testPFj8string_tE9Filenames8TestDataj>:
    2ec0:	f3 0f 1e fa          	endbr64
    2ec4:	41 56                	push   r14
    2ec6:	48 8d 35 97 13 00 00 	lea    rsi,[rip+0x1397]        # 4264 <_IO_stdin_used+0x264>
    2ecd:	45 89 ce             	mov    r14d,r9d
    2ed0:	41 55                	push   r13
    2ed2:	49 89 cd             	mov    r13,rcx
    2ed5:	41 54                	push   r12
    2ed7:	4d 89 c4             	mov    r12,r8
    2eda:	55                   	push   rbp
    2edb:	48 89 fd             	mov    rbp,rdi
    2ede:	48 89 d7             	mov    rdi,rdx
    2ee1:	53                   	push   rbx
    2ee2:	e8 09 e2 ff ff       	call   10f0 <fopen@plt>
    2ee7:	45 89 f0             	mov    r8d,r14d
    2eea:	4c 89 ea             	mov    rdx,r13
    2eed:	4c 89 e1             	mov    rcx,r12
    2ef0:	48 89 c3             	mov    rbx,rax
    2ef3:	48 89 ee             	mov    rsi,rbp
    2ef6:	48 89 c7             	mov    rdi,rax
    2ef9:	e8 62 fb ff ff       	call   2a60 <_Z14testSearchTimeP8_IO_FILEPFj8string_tE8TestDataj>
    2efe:	48 89 df             	mov    rdi,rbx
    2f01:	5b                   	pop    rbx
    2f02:	5d                   	pop    rbp
    2f03:	41 5c                	pop    r12
    2f05:	41 5d                	pop    r13
    2f07:	41 5e                	pop    r14
    2f09:	e9 c2 e1 ff ff       	jmp    10d0 <fclose@plt>
    2f0e:	66 90                	xchg   ax,ax

0000000000002f10 <_Z7testAllPKcjS0_>:
    2f10:	f3 0f 1e fa          	endbr64
    2f14:	41 57                	push   r15
    2f16:	41 56                	push   r14
    2f18:	41 55                	push   r13
    2f1a:	41 54                	push   r12
    2f1c:	55                   	push   rbp
    2f1d:	53                   	push   rbx
    2f1e:	48 83 ec 28          	sub    rsp,0x28
    2f22:	64 48 8b 04 25 28 00 	mov    rax,QWORD PTR fs:0x28
    2f29:	00 00 
    2f2b:	48 89 44 24 18       	mov    QWORD PTR [rsp+0x18],rax
    2f30:	31 c0                	xor    eax,eax
    2f32:	48 85 ff             	test   rdi,rdi
    2f35:	0f 84 5f 07 00 00    	je     369a <_Z7testAllPKcjS0_+0x78a>
    2f3b:	48 89 d3             	mov    rbx,rdx
    2f3e:	48 85 d2             	test   rdx,rdx
    2f41:	0f 84 34 07 00 00    	je     367b <_Z7testAllPKcjS0_+0x76b>
    2f47:	48 8d 3d c6 10 00 00 	lea    rdi,[rip+0x10c6]        # 4014 <_IO_stdin_used+0x14>
    2f4e:	41 89 f6             	mov    r14d,esi
    2f51:	48 8d 74 24 10       	lea    rsi,[rsp+0x10]
    2f56:	48 c7 44 24 10 00 00 	mov    QWORD PTR [rsp+0x10],0x0
    2f5d:	00 00 
    2f5f:	e8 1c f5 ff ff       	call   2480 <_Z8readFilePKcPm>
    2f64:	48 8b 74 24 10       	mov    rsi,QWORD PTR [rsp+0x10]
    2f69:	48 89 c7             	mov    rdi,rax
    2f6c:	49 89 c7             	mov    r15,rax
    2f6f:	48 89 04 24          	mov    QWORD PTR [rsp],rax
    2f73:	e8 18 f6 ff ff       	call   2590 <_Z10countLinesPcm>
    2f78:	4c 89 ff             	mov    rdi,r15
    2f7b:	41 89 c4             	mov    r12d,eax
    2f7e:	44 89 e6             	mov    esi,r12d
    2f81:	e8 7a e3 ff ff       	call   1300 <_Z16buildStringArrayPcj>
    2f86:	48 8d 35 e7 12 00 00 	lea    rsi,[rip+0x12e7]        # 4274 <_IO_stdin_used+0x274>
    2f8d:	48 89 df             	mov    rdi,rbx
    2f90:	48 89 c5             	mov    rbp,rax
    2f93:	e8 a8 e1 ff ff       	call   1140 <strcmp@plt>
    2f98:	85 c0                	test   eax,eax
    2f9a:	0f 84 e8 00 00 00    	je     3088 <_Z7testAllPKcjS0_+0x178>
    2fa0:	4c 8d 2d c9 12 00 00 	lea    r13,[rip+0x12c9]        # 4270 <_IO_stdin_used+0x270>
    2fa7:	48 89 df             	mov    rdi,rbx
    2faa:	4c 89 ee             	mov    rsi,r13
    2fad:	e8 8e e1 ff ff       	call   1140 <strcmp@plt>
    2fb2:	85 c0                	test   eax,eax
    2fb4:	0f 84 4e 06 00 00    	je     3608 <_Z7testAllPKcjS0_+0x6f8>
    2fba:	48 8d 35 b9 12 00 00 	lea    rsi,[rip+0x12b9]        # 427a <_IO_stdin_used+0x27a>
    2fc1:	48 89 df             	mov    rdi,rbx
    2fc4:	e8 77 e1 ff ff       	call   1140 <strcmp@plt>
    2fc9:	85 c0                	test   eax,eax
    2fcb:	0f 84 bf 05 00 00    	je     3590 <_Z7testAllPKcjS0_+0x680>
    2fd1:	48 8d 35 b2 12 00 00 	lea    rsi,[rip+0x12b2]        # 428a <_IO_stdin_used+0x28a>
    2fd8:	48 89 df             	mov    rdi,rbx
    2fdb:	e8 60 e1 ff ff       	call   1140 <strcmp@plt>
    2fe0:	85 c0                	test   eax,eax
    2fe2:	0f 84 30 05 00 00    	je     3518 <_Z7testAllPKcjS0_+0x608>
    2fe8:	48 8d 35 bc 12 00 00 	lea    rsi,[rip+0x12bc]        # 42ab <_IO_stdin_used+0x2ab>
    2fef:	48 89 df             	mov    rdi,rbx
    2ff2:	e8 49 e1 ff ff       	call   1140 <strcmp@plt>
    2ff7:	85 c0                	test   eax,eax
    2ff9:	0f 84 a1 04 00 00    	je     34a0 <_Z7testAllPKcjS0_+0x590>
    2fff:	48 8d 35 ad 12 00 00 	lea    rsi,[rip+0x12ad]        # 42b3 <_IO_stdin_used+0x2b3>
    3006:	48 89 df             	mov    rdi,rbx
    3009:	e8 32 e1 ff ff       	call   1140 <strcmp@plt>
    300e:	85 c0                	test   eax,eax
    3010:	0f 84 12 04 00 00    	je     3428 <_Z7testAllPKcjS0_+0x518>
    3016:	48 8d 35 b7 12 00 00 	lea    rsi,[rip+0x12b7]        # 42d4 <_IO_stdin_used+0x2d4>
    301d:	48 89 df             	mov    rdi,rbx
    3020:	e8 1b e1 ff ff       	call   1140 <strcmp@plt>
    3025:	85 c0                	test   eax,eax
    3027:	0f 84 83 03 00 00    	je     33b0 <_Z7testAllPKcjS0_+0x4a0>
    302d:	48 8d 35 b0 12 00 00 	lea    rsi,[rip+0x12b0]        # 42e4 <_IO_stdin_used+0x2e4>
    3034:	48 89 df             	mov    rdi,rbx
    3037:	e8 04 e1 ff ff       	call   1140 <strcmp@plt>
    303c:	85 c0                	test   eax,eax
    303e:	0f 84 bc 00 00 00    	je     3100 <_Z7testAllPKcjS0_+0x1f0>
    3044:	48 8b 3c 24          	mov    rdi,QWORD PTR [rsp]
    3048:	e8 b3 e0 ff ff       	call   1100 <free@plt>
    304d:	48 8b 7d 00          	mov    rdi,QWORD PTR [rbp+0x0]
    3051:	e8 aa e0 ff ff       	call   1100 <free@plt>
    3056:	48 89 ef             	mov    rdi,rbp
    3059:	e8 a2 e0 ff ff       	call   1100 <free@plt>
    305e:	48 8b 44 24 18       	mov    rax,QWORD PTR [rsp+0x18]
    3063:	64 48 2b 04 25 28 00 	sub    rax,QWORD PTR fs:0x28
    306a:	00 00 
    306c:	0f 85 04 06 00 00    	jne    3676 <_Z7testAllPKcjS0_+0x766>
    3072:	48 83 c4 28          	add    rsp,0x28
    3076:	5b                   	pop    rbx
    3077:	5d                   	pop    rbp
    3078:	41 5c                	pop    r12
    307a:	41 5d                	pop    r13
    307c:	41 5e                	pop    r14
    307e:	41 5f                	pop    r15
    3080:	c3                   	ret
    3081:	0f 1f 80 00 00 00 00 	nop    DWORD PTR [rax+0x0]
    3088:	48 8d 3d c9 14 00 00 	lea    rdi,[rip+0x14c9]        # 4558 <_IO_stdin_used+0x558>
    308f:	45 89 e5             	mov    r13d,r12d
    3092:	e8 c9 e0 ff ff       	call   1160 <puts@plt>
    3097:	48 8d 3d d6 11 00 00 	lea    rdi,[rip+0x11d6]        # 4274 <_IO_stdin_used+0x274>
    309e:	e8 bd e0 ff ff       	call   1160 <puts@plt>
    30a3:	48 8d 3d ce 14 00 00 	lea    rdi,[rip+0x14ce]        # 4578 <_IO_stdin_used+0x578>
    30aa:	e8 b1 e0 ff ff       	call   1160 <puts@plt>
    30af:	48 8d 35 ae 11 00 00 	lea    rsi,[rip+0x11ae]        # 4264 <_IO_stdin_used+0x264>
    30b6:	48 8d 3d db 14 00 00 	lea    rdi,[rip+0x14db]        # 4598 <_IO_stdin_used+0x598>
    30bd:	e8 2e e0 ff ff       	call   10f0 <fopen@plt>
    30c2:	45 89 f0             	mov    r8d,r14d
    30c5:	48 89 ea             	mov    rdx,rbp
    30c8:	4c 89 e9             	mov    rcx,r13
    30cb:	48 8d 35 2e e9 ff ff 	lea    rsi,[rip+0xffffffffffffe92e]        # 1a00 <_Z15crc32HashString8string_t>
    30d2:	49 89 c7             	mov    r15,rax
    30d5:	48 89 c7             	mov    rdi,rax
    30d8:	e8 83 f9 ff ff       	call   2a60 <_Z14testSearchTimeP8_IO_FILEPFj8string_tE8TestDataj>
    30dd:	4c 89 ff             	mov    rdi,r15
    30e0:	e8 eb df ff ff       	call   10d0 <fclose@plt>
    30e5:	48 8d 3d d4 14 00 00 	lea    rdi,[rip+0x14d4]        # 45c0 <_IO_stdin_used+0x5c0>
    30ec:	e8 6f e0 ff ff       	call   1160 <puts@plt>
    30f1:	e9 aa fe ff ff       	jmp    2fa0 <_Z7testAllPKcjS0_+0x90>
    30f6:	66 2e 0f 1f 84 00 00 	cs nop WORD PTR [rax+rax*1+0x0]
    30fd:	00 00 00 
    3100:	4c 8d 3d 51 14 00 00 	lea    r15,[rip+0x1451]        # 4558 <_IO_stdin_used+0x558>
    3107:	4c 89 ff             	mov    rdi,r15
    310a:	e8 51 e0 ff ff       	call   1160 <puts@plt>
    310f:	48 8d 3d 5e 11 00 00 	lea    rdi,[rip+0x115e]        # 4274 <_IO_stdin_used+0x274>
    3116:	e8 45 e0 ff ff       	call   1160 <puts@plt>
    311b:	48 8d 3d 56 14 00 00 	lea    rdi,[rip+0x1456]        # 4578 <_IO_stdin_used+0x578>
    3122:	e8 39 e0 ff ff       	call   1160 <puts@plt>
    3127:	44 89 e0             	mov    eax,r12d
    312a:	48 8d 35 33 11 00 00 	lea    rsi,[rip+0x1133]        # 4264 <_IO_stdin_used+0x264>
    3131:	48 8d 3d 60 14 00 00 	lea    rdi,[rip+0x1460]        # 4598 <_IO_stdin_used+0x598>
    3138:	48 89 44 24 08       	mov    QWORD PTR [rsp+0x8],rax
    313d:	e8 ae df ff ff       	call   10f0 <fopen@plt>
    3142:	45 89 f0             	mov    r8d,r14d
    3145:	48 89 ea             	mov    rdx,rbp
    3148:	4c 89 e1             	mov    rcx,r12
    314b:	48 8d 35 ae e8 ff ff 	lea    rsi,[rip+0xffffffffffffe8ae]        # 1a00 <_Z15crc32HashString8string_t>
    3152:	48 89 c3             	mov    rbx,rax
    3155:	48 89 c7             	mov    rdi,rax
    3158:	e8 03 f9 ff ff       	call   2a60 <_Z14testSearchTimeP8_IO_FILEPFj8string_tE8TestDataj>
    315d:	48 89 df             	mov    rdi,rbx
    3160:	48 8d 1d 59 14 00 00 	lea    rbx,[rip+0x1459]        # 45c0 <_IO_stdin_used+0x5c0>
    3167:	e8 64 df ff ff       	call   10d0 <fclose@plt>
    316c:	48 89 df             	mov    rdi,rbx
    316f:	e8 ec df ff ff       	call   1160 <puts@plt>
    3174:	4c 89 ff             	mov    rdi,r15
    3177:	e8 e4 df ff ff       	call   1160 <puts@plt>
    317c:	4c 89 ef             	mov    rdi,r13
    317f:	e8 dc df ff ff       	call   1160 <puts@plt>
    3184:	48 8d 3d ed 13 00 00 	lea    rdi,[rip+0x13ed]        # 4578 <_IO_stdin_used+0x578>
    318b:	e8 d0 df ff ff       	call   1160 <puts@plt>
    3190:	4c 8b 64 24 08       	mov    r12,QWORD PTR [rsp+0x8]
    3195:	48 8d 35 c8 10 00 00 	lea    rsi,[rip+0x10c8]        # 4264 <_IO_stdin_used+0x264>
    319c:	48 8d 3d 3d 14 00 00 	lea    rdi,[rip+0x143d]        # 45e0 <_IO_stdin_used+0x5e0>
    31a3:	e8 48 df ff ff       	call   10f0 <fopen@plt>
    31a8:	48 8d 35 71 e9 ff ff 	lea    rsi,[rip+0xffffffffffffe971]        # 1b20 <_Z19_mm_crc32HashString8string_t>
    31af:	45 89 f0             	mov    r8d,r14d
    31b2:	48 89 ea             	mov    rdx,rbp
    31b5:	4c 89 e1             	mov    rcx,r12
    31b8:	49 89 c5             	mov    r13,rax
    31bb:	48 89 c7             	mov    rdi,rax
    31be:	e8 9d f8 ff ff       	call   2a60 <_Z14testSearchTimeP8_IO_FILEPFj8string_tE8TestDataj>
    31c3:	4c 89 ef             	mov    rdi,r13
    31c6:	e8 05 df ff ff       	call   10d0 <fclose@plt>
    31cb:	48 89 df             	mov    rdi,rbx
    31ce:	e8 8d df ff ff       	call   1160 <puts@plt>
    31d3:	4c 89 ff             	mov    rdi,r15
    31d6:	e8 85 df ff ff       	call   1160 <puts@plt>
    31db:	48 8d 3d f2 10 00 00 	lea    rdi,[rip+0x10f2]        # 42d4 <_IO_stdin_used+0x2d4>
    31e2:	e8 79 df ff ff       	call   1160 <puts@plt>
    31e7:	48 8d 3d 8a 13 00 00 	lea    rdi,[rip+0x138a]        # 4578 <_IO_stdin_used+0x578>
    31ee:	e8 6d df ff ff       	call   1160 <puts@plt>
    31f3:	48 8d 35 6a 10 00 00 	lea    rsi,[rip+0x106a]        # 4264 <_IO_stdin_used+0x264>
    31fa:	48 8d 3d 5f 14 00 00 	lea    rdi,[rip+0x145f]        # 4660 <_IO_stdin_used+0x660>
    3201:	e8 ea de ff ff       	call   10f0 <fopen@plt>
    3206:	45 89 f0             	mov    r8d,r14d
    3209:	48 89 ea             	mov    rdx,rbp
    320c:	4c 89 e1             	mov    rcx,r12
    320f:	48 8d 35 5a e9 ff ff 	lea    rsi,[rip+0xffffffffffffe95a]        # 1b70 <_Z25_mm_crc32UnrollHashString8string_t>
    3216:	49 89 c5             	mov    r13,rax
    3219:	48 89 c7             	mov    rdi,rax
    321c:	e8 3f f8 ff ff       	call   2a60 <_Z14testSearchTimeP8_IO_FILEPFj8string_tE8TestDataj>
    3221:	4c 89 ef             	mov    rdi,r13
    3224:	e8 a7 de ff ff       	call   10d0 <fclose@plt>
    3229:	48 89 df             	mov    rdi,rbx
    322c:	e8 2f df ff ff       	call   1160 <puts@plt>
    3231:	4c 89 ff             	mov    rdi,r15
    3234:	e8 27 df ff ff       	call   1160 <puts@plt>
    3239:	48 8d 3d 42 10 00 00 	lea    rdi,[rip+0x1042]        # 4282 <_IO_stdin_used+0x282>
    3240:	e8 1b df ff ff       	call   1160 <puts@plt>
    3245:	48 8d 3d 2c 13 00 00 	lea    rdi,[rip+0x132c]        # 4578 <_IO_stdin_used+0x578>
    324c:	e8 0f df ff ff       	call   1160 <puts@plt>
    3251:	48 8d 35 0c 10 00 00 	lea    rsi,[rip+0x100c]        # 4264 <_IO_stdin_used+0x264>
    3258:	48 8d 3d b1 13 00 00 	lea    rdi,[rip+0x13b1]        # 4610 <_IO_stdin_used+0x610>
    325f:	e8 8c de ff ff       	call   10f0 <fopen@plt>
    3264:	45 89 f0             	mov    r8d,r14d
    3267:	48 89 ea             	mov    rdx,rbp
    326a:	4c 89 e1             	mov    rcx,r12
    326d:	48 8d 35 3c e9 ff ff 	lea    rsi,[rip+0xffffffffffffe93c]        # 1bb0 <_Z17murmur2HashString8string_t>
    3274:	49 89 c5             	mov    r13,rax
    3277:	48 89 c7             	mov    rdi,rax
    327a:	e8 e1 f7 ff ff       	call   2a60 <_Z14testSearchTimeP8_IO_FILEPFj8string_tE8TestDataj>
    327f:	4c 89 ef             	mov    rdi,r13
    3282:	e8 49 de ff ff       	call   10d0 <fclose@plt>
    3287:	48 89 df             	mov    rdi,rbx
    328a:	e8 d1 de ff ff       	call   1160 <puts@plt>
    328f:	4c 89 ff             	mov    rdi,r15
    3292:	e8 c9 de ff ff       	call   1160 <puts@plt>
    3297:	48 8d 3d ec 0f 00 00 	lea    rdi,[rip+0xfec]        # 428a <_IO_stdin_used+0x28a>
    329e:	e8 bd de ff ff       	call   1160 <puts@plt>
    32a3:	48 8d 3d ce 12 00 00 	lea    rdi,[rip+0x12ce]        # 4578 <_IO_stdin_used+0x578>
    32aa:	e8 b1 de ff ff       	call   1160 <puts@plt>
    32af:	48 8d 35 ae 0f 00 00 	lea    rsi,[rip+0xfae]        # 4264 <_IO_stdin_used+0x264>
    32b6:	48 8d 3d d1 0f 00 00 	lea    rdi,[rip+0xfd1]        # 428e <_IO_stdin_used+0x28e>
    32bd:	e8 2e de ff ff       	call   10f0 <fopen@plt>
    32c2:	45 89 f0             	mov    r8d,r14d
    32c5:	48 89 ea             	mov    rdx,rbp
    32c8:	4c 89 e1             	mov    rcx,r12
    32cb:	48 8d 35 8e e9 ff ff 	lea    rsi,[rip+0xffffffffffffe98e]        # 1c60 <_Z13sumHashString8string_t>
    32d2:	49 89 c5             	mov    r13,rax
    32d5:	48 89 c7             	mov    rdi,rax
    32d8:	e8 83 f7 ff ff       	call   2a60 <_Z14testSearchTimeP8_IO_FILEPFj8string_tE8TestDataj>
    32dd:	4c 89 ef             	mov    rdi,r13
    32e0:	e8 eb dd ff ff       	call   10d0 <fclose@plt>
    32e5:	48 89 df             	mov    rdi,rbx
    32e8:	e8 73 de ff ff       	call   1160 <puts@plt>
    32ed:	4c 89 ff             	mov    rdi,r15
    32f0:	e8 6b de ff ff       	call   1160 <puts@plt>
    32f5:	48 8d 3d af 0f 00 00 	lea    rdi,[rip+0xfaf]        # 42ab <_IO_stdin_used+0x2ab>
    32fc:	e8 5f de ff ff       	call   1160 <puts@plt>
    3301:	48 8d 3d 70 12 00 00 	lea    rdi,[rip+0x1270]        # 4578 <_IO_stdin_used+0x578>
    3308:	e8 53 de ff ff       	call   1160 <puts@plt>
    330d:	48 8d 35 50 0f 00 00 	lea    rsi,[rip+0xf50]        # 4264 <_IO_stdin_used+0x264>
    3314:	48 8d 3d 1d 13 00 00 	lea    rdi,[rip+0x131d]        # 4638 <_IO_stdin_used+0x638>
    331b:	e8 d0 dd ff ff       	call   10f0 <fopen@plt>
    3320:	45 89 f0             	mov    r8d,r14d
    3323:	48 89 ea             	mov    rdx,rbp
    3326:	4c 89 e1             	mov    rcx,r12
    3329:	48 8d 35 a0 ea ff ff 	lea    rsi,[rip+0xffffffffffffeaa0]        # 1dd0 <_Z17adler32HashString8string_t>
    3330:	49 89 c5             	mov    r13,rax
    3333:	48 89 c7             	mov    rdi,rax
    3336:	e8 25 f7 ff ff       	call   2a60 <_Z14testSearchTimeP8_IO_FILEPFj8string_tE8TestDataj>
    333b:	4c 89 ef             	mov    rdi,r13
    333e:	e8 8d dd ff ff       	call   10d0 <fclose@plt>
    3343:	48 89 df             	mov    rdi,rbx
    3346:	e8 15 de ff ff       	call   1160 <puts@plt>
    334b:	4c 89 ff             	mov    rdi,r15
    334e:	e8 0d de ff ff       	call   1160 <puts@plt>
    3353:	48 8d 3d 59 0f 00 00 	lea    rdi,[rip+0xf59]        # 42b3 <_IO_stdin_used+0x2b3>
    335a:	e8 01 de ff ff       	call   1160 <puts@plt>
    335f:	48 8d 3d 12 12 00 00 	lea    rdi,[rip+0x1212]        # 4578 <_IO_stdin_used+0x578>
    3366:	e8 f5 dd ff ff       	call   1160 <puts@plt>
    336b:	48 8d 35 f2 0e 00 00 	lea    rsi,[rip+0xef2]        # 4264 <_IO_stdin_used+0x264>
    3372:	48 8d 3d 3e 0f 00 00 	lea    rdi,[rip+0xf3e]        # 42b7 <_IO_stdin_used+0x2b7>
    3379:	e8 72 dd ff ff       	call   10f0 <fopen@plt>
    337e:	45 89 f0             	mov    r8d,r14d
    3381:	48 89 ea             	mov    rdx,rbp
    3384:	4c 89 e1             	mov    rcx,r12
    3387:	48 8d 35 c2 ea ff ff 	lea    rsi,[rip+0xffffffffffffeac2]        # 1e50 <_Z13elfHashString8string_t>
    338e:	49 89 c5             	mov    r13,rax
    3391:	48 89 c7             	mov    rdi,rax
    3394:	e8 c7 f6 ff ff       	call   2a60 <_Z14testSearchTimeP8_IO_FILEPFj8string_tE8TestDataj>
    3399:	4c 89 ef             	mov    rdi,r13
    339c:	e8 2f dd ff ff       	call   10d0 <fclose@plt>
    33a1:	48 89 df             	mov    rdi,rbx
    33a4:	e8 b7 dd ff ff       	call   1160 <puts@plt>
    33a9:	e9 96 fc ff ff       	jmp    3044 <_Z7testAllPKcjS0_+0x134>
    33ae:	66 90                	xchg   ax,ax
    33b0:	48 8d 3d a1 11 00 00 	lea    rdi,[rip+0x11a1]        # 4558 <_IO_stdin_used+0x558>
    33b7:	45 89 e7             	mov    r15d,r12d
    33ba:	e8 a1 dd ff ff       	call   1160 <puts@plt>
    33bf:	48 8d 3d 0e 0f 00 00 	lea    rdi,[rip+0xf0e]        # 42d4 <_IO_stdin_used+0x2d4>
    33c6:	e8 95 dd ff ff       	call   1160 <puts@plt>
    33cb:	48 8d 3d a6 11 00 00 	lea    rdi,[rip+0x11a6]        # 4578 <_IO_stdin_used+0x578>
    33d2:	e8 89 dd ff ff       	call   1160 <puts@plt>
    33d7:	48 8d 35 86 0e 00 00 	lea    rsi,[rip+0xe86]        # 4264 <_IO_stdin_used+0x264>
    33de:	48 8d 3d 7b 12 00 00 	lea    rdi,[rip+0x127b]        # 4660 <_IO_stdin_used+0x660>
    33e5:	e8 06 dd ff ff       	call   10f0 <fopen@plt>
    33ea:	45 89 f0             	mov    r8d,r14d
    33ed:	48 89 ea             	mov    rdx,rbp
    33f0:	4c 89 f9             	mov    rcx,r15
    33f3:	48 8d 35 76 e7 ff ff 	lea    rsi,[rip+0xffffffffffffe776]        # 1b70 <_Z25_mm_crc32UnrollHashString8string_t>
    33fa:	48 89 c7             	mov    rdi,rax
    33fd:	48 89 44 24 08       	mov    QWORD PTR [rsp+0x8],rax
    3402:	e8 59 f6 ff ff       	call   2a60 <_Z14testSearchTimeP8_IO_FILEPFj8string_tE8TestDataj>
    3407:	48 8b 7c 24 08       	mov    rdi,QWORD PTR [rsp+0x8]
    340c:	e8 bf dc ff ff       	call   10d0 <fclose@plt>
    3411:	48 8d 3d a8 11 00 00 	lea    rdi,[rip+0x11a8]        # 45c0 <_IO_stdin_used+0x5c0>
    3418:	e8 43 dd ff ff       	call   1160 <puts@plt>
    341d:	e9 0b fc ff ff       	jmp    302d <_Z7testAllPKcjS0_+0x11d>
    3422:	66 0f 1f 44 00 00    	nop    WORD PTR [rax+rax*1+0x0]
    3428:	48 8d 3d 29 11 00 00 	lea    rdi,[rip+0x1129]        # 4558 <_IO_stdin_used+0x558>
    342f:	45 89 e7             	mov    r15d,r12d
    3432:	e8 29 dd ff ff       	call   1160 <puts@plt>
    3437:	48 8d 3d 75 0e 00 00 	lea    rdi,[rip+0xe75]        # 42b3 <_IO_stdin_used+0x2b3>
    343e:	e8 1d dd ff ff       	call   1160 <puts@plt>
    3443:	48 8d 3d 2e 11 00 00 	lea    rdi,[rip+0x112e]        # 4578 <_IO_stdin_used+0x578>
    344a:	e8 11 dd ff ff       	call   1160 <puts@plt>
    344f:	48 8d 35 0e 0e 00 00 	lea    rsi,[rip+0xe0e]        # 4264 <_IO_stdin_used+0x264>
    3456:	48 8d 3d 5a 0e 00 00 	lea    rdi,[rip+0xe5a]        # 42b7 <_IO_stdin_used+0x2b7>
    345d:	e8 8e dc ff ff       	call   10f0 <fopen@plt>
    3462:	45 89 f0             	mov    r8d,r14d
    3465:	48 89 ea             	mov    rdx,rbp
    3468:	4c 89 f9             	mov    rcx,r15
    346b:	48 8d 35 de e9 ff ff 	lea    rsi,[rip+0xffffffffffffe9de]        # 1e50 <_Z13elfHashString8string_t>
    3472:	48 89 c7             	mov    rdi,rax
    3475:	48 89 44 24 08       	mov    QWORD PTR [rsp+0x8],rax
    347a:	e8 e1 f5 ff ff       	call   2a60 <_Z14testSearchTimeP8_IO_FILEPFj8string_tE8TestDataj>
    347f:	48 8b 7c 24 08       	mov    rdi,QWORD PTR [rsp+0x8]
    3484:	e8 47 dc ff ff       	call   10d0 <fclose@plt>
    3489:	48 8d 3d 30 11 00 00 	lea    rdi,[rip+0x1130]        # 45c0 <_IO_stdin_used+0x5c0>
    3490:	e8 cb dc ff ff       	call   1160 <puts@plt>
    3495:	e9 7c fb ff ff       	jmp    3016 <_Z7testAllPKcjS0_+0x106>
    349a:	66 0f 1f 44 00 00    	nop    WORD PTR [rax+rax*1+0x0]
    34a0:	48 8d 3d b1 10 00 00 	lea    rdi,[rip+0x10b1]        # 4558 <_IO_stdin_used+0x558>
    34a7:	45 89 e7             	mov    r15d,r12d
    34aa:	e8 b1 dc ff ff       	call   1160 <puts@plt>
    34af:	48 8d 3d f5 0d 00 00 	lea    rdi,[rip+0xdf5]        # 42ab <_IO_stdin_used+0x2ab>
    34b6:	e8 a5 dc ff ff       	call   1160 <puts@plt>
    34bb:	48 8d 3d b6 10 00 00 	lea    rdi,[rip+0x10b6]        # 4578 <_IO_stdin_used+0x578>
    34c2:	e8 99 dc ff ff       	call   1160 <puts@plt>
    34c7:	48 8d 35 96 0d 00 00 	lea    rsi,[rip+0xd96]        # 4264 <_IO_stdin_used+0x264>
    34ce:	48 8d 3d 63 11 00 00 	lea    rdi,[rip+0x1163]        # 4638 <_IO_stdin_used+0x638>
    34d5:	e8 16 dc ff ff       	call   10f0 <fopen@plt>
    34da:	45 89 f0             	mov    r8d,r14d
    34dd:	48 89 ea             	mov    rdx,rbp
    34e0:	4c 89 f9             	mov    rcx,r15
    34e3:	48 8d 35 e6 e8 ff ff 	lea    rsi,[rip+0xffffffffffffe8e6]        # 1dd0 <_Z17adler32HashString8string_t>
    34ea:	48 89 c7             	mov    rdi,rax
    34ed:	48 89 44 24 08       	mov    QWORD PTR [rsp+0x8],rax
    34f2:	e8 69 f5 ff ff       	call   2a60 <_Z14testSearchTimeP8_IO_FILEPFj8string_tE8TestDataj>
    34f7:	48 8b 7c 24 08       	mov    rdi,QWORD PTR [rsp+0x8]
    34fc:	e8 cf db ff ff       	call   10d0 <fclose@plt>
    3501:	48 8d 3d b8 10 00 00 	lea    rdi,[rip+0x10b8]        # 45c0 <_IO_stdin_used+0x5c0>
    3508:	e8 53 dc ff ff       	call   1160 <puts@plt>
    350d:	e9 ed fa ff ff       	jmp    2fff <_Z7testAllPKcjS0_+0xef>
    3512:	66 0f 1f 44 00 00    	nop    WORD PTR [rax+rax*1+0x0]
    3518:	48 8d 3d 39 10 00 00 	lea    rdi,[rip+0x1039]        # 4558 <_IO_stdin_used+0x558>
    351f:	45 89 e7             	mov    r15d,r12d
    3522:	e8 39 dc ff ff       	call   1160 <puts@plt>
    3527:	48 8d 3d 5c 0d 00 00 	lea    rdi,[rip+0xd5c]        # 428a <_IO_stdin_used+0x28a>
    352e:	e8 2d dc ff ff       	call   1160 <puts@plt>
    3533:	48 8d 3d 3e 10 00 00 	lea    rdi,[rip+0x103e]        # 4578 <_IO_stdin_used+0x578>
    353a:	e8 21 dc ff ff       	call   1160 <puts@plt>
    353f:	48 8d 35 1e 0d 00 00 	lea    rsi,[rip+0xd1e]        # 4264 <_IO_stdin_used+0x264>
    3546:	48 8d 3d 41 0d 00 00 	lea    rdi,[rip+0xd41]        # 428e <_IO_stdin_used+0x28e>
    354d:	e8 9e db ff ff       	call   10f0 <fopen@plt>
    3552:	45 89 f0             	mov    r8d,r14d
    3555:	48 89 ea             	mov    rdx,rbp
    3558:	4c 89 f9             	mov    rcx,r15
    355b:	48 8d 35 fe e6 ff ff 	lea    rsi,[rip+0xffffffffffffe6fe]        # 1c60 <_Z13sumHashString8string_t>
    3562:	48 89 c7             	mov    rdi,rax
    3565:	48 89 44 24 08       	mov    QWORD PTR [rsp+0x8],rax
    356a:	e8 f1 f4 ff ff       	call   2a60 <_Z14testSearchTimeP8_IO_FILEPFj8string_tE8TestDataj>
    356f:	48 8b 7c 24 08       	mov    rdi,QWORD PTR [rsp+0x8]
    3574:	e8 57 db ff ff       	call   10d0 <fclose@plt>
    3579:	48 8d 3d 40 10 00 00 	lea    rdi,[rip+0x1040]        # 45c0 <_IO_stdin_used+0x5c0>
    3580:	e8 db db ff ff       	call   1160 <puts@plt>
    3585:	e9 5e fa ff ff       	jmp    2fe8 <_Z7testAllPKcjS0_+0xd8>
    358a:	66 0f 1f 44 00 00    	nop    WORD PTR [rax+rax*1+0x0]
    3590:	48 8d 3d c1 0f 00 00 	lea    rdi,[rip+0xfc1]        # 4558 <_IO_stdin_used+0x558>
    3597:	45 89 e7             	mov    r15d,r12d
    359a:	e8 c1 db ff ff       	call   1160 <puts@plt>
    359f:	48 8d 3d dc 0c 00 00 	lea    rdi,[rip+0xcdc]        # 4282 <_IO_stdin_used+0x282>
    35a6:	e8 b5 db ff ff       	call   1160 <puts@plt>
    35ab:	48 8d 3d c6 0f 00 00 	lea    rdi,[rip+0xfc6]        # 4578 <_IO_stdin_used+0x578>
    35b2:	e8 a9 db ff ff       	call   1160 <puts@plt>
    35b7:	48 8d 35 a6 0c 00 00 	lea    rsi,[rip+0xca6]        # 4264 <_IO_stdin_used+0x264>
    35be:	48 8d 3d 4b 10 00 00 	lea    rdi,[rip+0x104b]        # 4610 <_IO_stdin_used+0x610>
    35c5:	e8 26 db ff ff       	call   10f0 <fopen@plt>
    35ca:	45 89 f0             	mov    r8d,r14d
    35cd:	48 89 ea             	mov    rdx,rbp
    35d0:	4c 89 f9             	mov    rcx,r15
    35d3:	48 8d 35 d6 e5 ff ff 	lea    rsi,[rip+0xffffffffffffe5d6]        # 1bb0 <_Z17murmur2HashString8string_t>
    35da:	48 89 c7             	mov    rdi,rax
    35dd:	48 89 44 24 08       	mov    QWORD PTR [rsp+0x8],rax
    35e2:	e8 79 f4 ff ff       	call   2a60 <_Z14testSearchTimeP8_IO_FILEPFj8string_tE8TestDataj>
    35e7:	48 8b 7c 24 08       	mov    rdi,QWORD PTR [rsp+0x8]
    35ec:	e8 df da ff ff       	call   10d0 <fclose@plt>
    35f1:	48 8d 3d c8 0f 00 00 	lea    rdi,[rip+0xfc8]        # 45c0 <_IO_stdin_used+0x5c0>
    35f8:	e8 63 db ff ff       	call   1160 <puts@plt>
    35fd:	e9 cf f9 ff ff       	jmp    2fd1 <_Z7testAllPKcjS0_+0xc1>
    3602:	66 0f 1f 44 00 00    	nop    WORD PTR [rax+rax*1+0x0]
    3608:	48 8d 3d 49 0f 00 00 	lea    rdi,[rip+0xf49]        # 4558 <_IO_stdin_used+0x558>
    360f:	45 89 e7             	mov    r15d,r12d
    3612:	e8 49 db ff ff       	call   1160 <puts@plt>
    3617:	4c 89 ef             	mov    rdi,r13
    361a:	e8 41 db ff ff       	call   1160 <puts@plt>
    361f:	48 8d 3d 52 0f 00 00 	lea    rdi,[rip+0xf52]        # 4578 <_IO_stdin_used+0x578>
    3626:	e8 35 db ff ff       	call   1160 <puts@plt>
    362b:	48 8d 35 32 0c 00 00 	lea    rsi,[rip+0xc32]        # 4264 <_IO_stdin_used+0x264>
    3632:	48 8d 3d a7 0f 00 00 	lea    rdi,[rip+0xfa7]        # 45e0 <_IO_stdin_used+0x5e0>
    3639:	e8 b2 da ff ff       	call   10f0 <fopen@plt>
    363e:	45 89 f0             	mov    r8d,r14d
    3641:	48 89 ea             	mov    rdx,rbp
    3644:	4c 89 f9             	mov    rcx,r15
    3647:	48 8d 35 d2 e4 ff ff 	lea    rsi,[rip+0xffffffffffffe4d2]        # 1b20 <_Z19_mm_crc32HashString8string_t>
    364e:	48 89 c7             	mov    rdi,rax
    3651:	48 89 44 24 08       	mov    QWORD PTR [rsp+0x8],rax
    3656:	e8 05 f4 ff ff       	call   2a60 <_Z14testSearchTimeP8_IO_FILEPFj8string_tE8TestDataj>
    365b:	48 8b 7c 24 08       	mov    rdi,QWORD PTR [rsp+0x8]
    3660:	e8 6b da ff ff       	call   10d0 <fclose@plt>
    3665:	48 8d 3d 54 0f 00 00 	lea    rdi,[rip+0xf54]        # 45c0 <_IO_stdin_used+0x5c0>
    366c:	e8 ef da ff ff       	call   1160 <puts@plt>
    3671:	e9 44 f9 ff ff       	jmp    2fba <_Z7testAllPKcjS0_+0xaa>
    3676:	e8 65 da ff ff       	call   10e0 <__stack_chk_fail@plt>
    367b:	48 8d 0d 9e 0e 00 00 	lea    rcx,[rip+0xe9e]        # 4520 <_IO_stdin_used+0x520>
    3682:	ba 13 00 00 00       	mov    edx,0x13
    3687:	48 8d 35 e1 0a 00 00 	lea    rsi,[rip+0xae1]        # 416f <_IO_stdin_used+0x16f>
    368e:	48 8d 3d d1 0b 00 00 	lea    rdi,[rip+0xbd1]        # 4266 <_IO_stdin_used+0x266>
    3695:	e8 d6 d9 ff ff       	call   1070 <__assert_fail@plt>
    369a:	48 8d 0d 7f 0e 00 00 	lea    rcx,[rip+0xe7f]        # 4520 <_IO_stdin_used+0x520>
    36a1:	ba 12 00 00 00       	mov    edx,0x12
    36a6:	48 8d 35 c2 0a 00 00 	lea    rsi,[rip+0xac2]        # 416f <_IO_stdin_used+0x16f>
    36ad:	48 8d 3d b2 0a 00 00 	lea    rdi,[rip+0xab2]        # 4166 <_IO_stdin_used+0x166>
    36b4:	e8 b7 d9 ff ff       	call   1070 <__assert_fail@plt>
    36b9:	0f 1f 80 00 00 00 00 	nop    DWORD PTR [rax+0x0]

00000000000036c0 <_Z21standartDeviationTimePdjd>:
    36c0:	f3 0f 1e fa          	endbr64
    36c4:	4c 8d 54 24 08       	lea    r10,[rsp+0x8]
    36c9:	48 83 e4 e0          	and    rsp,0xffffffffffffffe0
    36cd:	41 ff 72 f8          	push   QWORD PTR [r10-0x8]
    36d1:	55                   	push   rbp
    36d2:	48 89 e5             	mov    rbp,rsp
    36d5:	41 52                	push   r10
    36d7:	48 83 ec 08          	sub    rsp,0x8
    36db:	48 85 ff             	test   rdi,rdi
    36de:	0f 84 18 01 00 00    	je     37fc <_Z21standartDeviationTimePdjd+0x13c>
    36e4:	89 f1                	mov    ecx,esi
    36e6:	85 c9                	test   ecx,ecx
    36e8:	0f 84 f2 00 00 00    	je     37e0 <_Z21standartDeviationTimePdjd+0x120>
    36ee:	8d 41 ff             	lea    eax,[rcx-0x1]
    36f1:	48 89 fa             	mov    rdx,rdi
    36f4:	c5 fb 10 d8          	vmovsd xmm3,xmm0,xmm0
    36f8:	83 f8 02             	cmp    eax,0x2
    36fb:	0f 86 e9 00 00 00    	jbe    37ea <_Z21standartDeviationTimePdjd+0x12a>
    3701:	89 ce                	mov    esi,ecx
    3703:	c4 e2 7d 19 e8       	vbroadcastsd ymm5,xmm0
    3708:	c5 f9 57 c0          	vxorpd xmm0,xmm0,xmm0
    370c:	48 89 f8             	mov    rax,rdi
    370f:	c1 ee 02             	shr    esi,0x2
    3712:	48 c1 e6 05          	shl    rsi,0x5
    3716:	48 01 fe             	add    rsi,rdi
    3719:	0f 1f 80 00 00 00 00 	nop    DWORD PTR [rax+0x0]
    3720:	c5 fd 10 30          	vmovupd ymm6,YMMWORD PTR [rax]
    3724:	48 83 c0 20          	add    rax,0x20
    3728:	c5 cd 5c cd          	vsubpd ymm1,ymm6,ymm5
    372c:	c5 f5 59 c9          	vmulpd ymm1,ymm1,ymm1
    3730:	c5 fb 58 c1          	vaddsd xmm0,xmm0,xmm1
    3734:	c5 f1 15 d1          	vunpckhpd xmm2,xmm1,xmm1
    3738:	c4 e3 7d 19 c9 01    	vextractf128 xmm1,ymm1,0x1
    373e:	c5 fb 58 c2          	vaddsd xmm0,xmm0,xmm2
    3742:	c5 fb 58 c1          	vaddsd xmm0,xmm0,xmm1
    3746:	c5 f1 15 c9          	vunpckhpd xmm1,xmm1,xmm1
    374a:	c5 fb 58 c1          	vaddsd xmm0,xmm0,xmm1
    374e:	48 39 f0             	cmp    rax,rsi
    3751:	75 cd                	jne    3720 <_Z21standartDeviationTimePdjd+0x60>
    3753:	89 c8                	mov    eax,ecx
    3755:	83 e0 fc             	and    eax,0xfffffffc
    3758:	f6 c1 03             	test   cl,0x3
    375b:	74 7b                	je     37d8 <_Z21standartDeviationTimePdjd+0x118>
    375d:	c5 f8 77             	vzeroupper
    3760:	89 ce                	mov    esi,ecx
    3762:	29 c6                	sub    esi,eax
    3764:	83 fe 01             	cmp    esi,0x1
    3767:	74 2a                	je     3793 <_Z21standartDeviationTimePdjd+0xd3>
    3769:	89 c7                	mov    edi,eax
    376b:	c5 fb 12 d3          	vmovddup xmm2,xmm3
    376f:	c5 f9 10 0c fa       	vmovupd xmm1,XMMWORD PTR [rdx+rdi*8]
    3774:	c5 f1 5c ca          	vsubpd xmm1,xmm1,xmm2
    3778:	c5 f1 59 c9          	vmulpd xmm1,xmm1,xmm1
    377c:	c5 fb 58 c1          	vaddsd xmm0,xmm0,xmm1
    3780:	c5 f1 15 c9          	vunpckhpd xmm1,xmm1,xmm1
    3784:	c5 f3 58 c0          	vaddsd xmm0,xmm1,xmm0
    3788:	40 f6 c6 01          	test   sil,0x1
    378c:	74 16                	je     37a4 <_Z21standartDeviationTimePdjd+0xe4>
    378e:	83 e6 fe             	and    esi,0xfffffffe
    3791:	01 f0                	add    eax,esi
    3793:	c5 fb 10 0c c2       	vmovsd xmm1,QWORD PTR [rdx+rax*8]
    3798:	c5 f3 5c cb          	vsubsd xmm1,xmm1,xmm3
    379c:	c5 f3 59 c9          	vmulsd xmm1,xmm1,xmm1
    37a0:	c5 fb 58 c1          	vaddsd xmm0,xmm0,xmm1
    37a4:	c5 f0 57 c9          	vxorps xmm1,xmm1,xmm1
    37a8:	c5 fb 5a c0          	vcvtsd2ss xmm0,xmm0,xmm0
    37ac:	c4 e1 f2 2a c9       	vcvtsi2ss xmm1,xmm1,rcx
    37b1:	c5 fa 5e c1          	vdivss xmm0,xmm0,xmm1
    37b5:	c5 f0 57 c9          	vxorps xmm1,xmm1,xmm1
    37b9:	c5 f8 2e c8          	vucomiss xmm1,xmm0
    37bd:	77 36                	ja     37f5 <_Z21standartDeviationTimePdjd+0x135>
    37bf:	c5 fa 51 c0          	vsqrtss xmm0,xmm0,xmm0
    37c3:	4c 8b 55 f8          	mov    r10,QWORD PTR [rbp-0x8]
    37c7:	c5 fa 5a c0          	vcvtss2sd xmm0,xmm0,xmm0
    37cb:	c9                   	leave
    37cc:	49 8d 62 f8          	lea    rsp,[r10-0x8]
    37d0:	c3                   	ret
    37d1:	0f 1f 80 00 00 00 00 	nop    DWORD PTR [rax+0x0]
    37d8:	c5 f8 77             	vzeroupper
    37db:	eb c7                	jmp    37a4 <_Z21standartDeviationTimePdjd+0xe4>
    37dd:	0f 1f 00             	nop    DWORD PTR [rax]
    37e0:	c5 f8 57 c0          	vxorps xmm0,xmm0,xmm0
    37e4:	c5 fa 5e c0          	vdivss xmm0,xmm0,xmm0
    37e8:	eb d5                	jmp    37bf <_Z21standartDeviationTimePdjd+0xff>
    37ea:	31 c0                	xor    eax,eax
    37ec:	c5 f9 57 c0          	vxorpd xmm0,xmm0,xmm0
    37f0:	e9 6b ff ff ff       	jmp    3760 <_Z21standartDeviationTimePdjd+0xa0>
    37f5:	e8 96 d9 ff ff       	call   1190 <sqrtf@plt>
    37fa:	eb c7                	jmp    37c3 <_Z21standartDeviationTimePdjd+0x103>
    37fc:	48 8d 0d e5 0c 00 00 	lea    rcx,[rip+0xce5]        # 44e8 <_IO_stdin_used+0x4e8>
    3803:	ba a9 00 00 00       	mov    edx,0xa9
    3808:	48 8d 35 60 09 00 00 	lea    rsi,[rip+0x960]        # 416f <_IO_stdin_used+0x16f>
    380f:	48 8d 3d e3 09 00 00 	lea    rdi,[rip+0x9e3]        # 41f9 <_IO_stdin_used+0x1f9>
    3816:	e8 55 d8 ff ff       	call   1070 <__assert_fail@plt>
    381b:	0f 1f 44 00 00       	nop    DWORD PTR [rax+rax*1+0x0]

0000000000003820 <_Z27standartDeviationCollisionsP7HashMapf>:
    3820:	f3 0f 1e fa          	endbr64
    3824:	41 55                	push   r13
    3826:	4c 8d 6c 24 10       	lea    r13,[rsp+0x10]
    382b:	48 83 e4 e0          	and    rsp,0xffffffffffffffe0
    382f:	41 ff 75 f8          	push   QWORD PTR [r13-0x8]
    3833:	55                   	push   rbp
    3834:	48 89 e5             	mov    rbp,rsp
    3837:	41 55                	push   r13
    3839:	48 83 ec 28          	sub    rsp,0x28
    383d:	48 85 ff             	test   rdi,rdi
    3840:	0f 84 d7 02 00 00    	je     3b1d <_Z27standartDeviationCollisionsP7HashMapf+0x2fd>
    3846:	8b 77 08             	mov    esi,DWORD PTR [rdi+0x8]
    3849:	85 f6                	test   esi,esi
    384b:	0f 84 87 02 00 00    	je     3ad8 <_Z27standartDeviationCollisionsP7HashMapf+0x2b8>
    3851:	8d 46 ff             	lea    eax,[rsi-0x1]
    3854:	48 8b 3f             	mov    rdi,QWORD PTR [rdi]
    3857:	c5 f8 28 e0          	vmovaps xmm4,xmm0
    385b:	c5 e0 57 db          	vxorps xmm3,xmm3,xmm3
    385f:	83 f8 06             	cmp    eax,0x6
    3862:	0f 86 95 02 00 00    	jbe    3afd <_Z27standartDeviationCollisionsP7HashMapf+0x2dd>
    3868:	48 8d 47 10          	lea    rax,[rdi+0x10]
    386c:	c4 e2 7d 18 f0       	vbroadcastss ymm6,xmm0
    3871:	c4 41 38 57 c0       	vxorps xmm8,xmm8,xmm8
    3876:	89 f2                	mov    edx,esi
    3878:	c4 e2 7d 18 2d 8f 07 	vbroadcastss ymm5,DWORD PTR [rip+0x78f]        # 4010 <_IO_stdin_used+0x10>
    387f:	00 00 
    3881:	c1 ea 03             	shr    edx,0x3
    3884:	48 b9 00 00 00 00 ff 	movabs rcx,0xffffffff00000000
    388b:	ff ff ff 
    388e:	4c 8d 04 52          	lea    r8,[rdx+rdx*2]
    3892:	ba ff ff 00 00       	mov    edx,0xffff
    3897:	49 c1 e0 06          	shl    r8,0x6
    389b:	c5 f9 6e d2          	vmovd  xmm2,edx
    389f:	49 01 c0             	add    r8,rax
    38a2:	c4 e2 7d 58 d2       	vpbroadcastd ymm2,xmm2
    38a7:	66 0f 1f 84 00 00 00 	nop    WORD PTR [rax+rax*1+0x0]
    38ae:	00 00 
    38b0:	8b 50 18             	mov    edx,DWORD PTR [rax+0x18]
    38b3:	44 8b 08             	mov    r9d,DWORD PTR [rax]
    38b6:	c5 c1 ef ff          	vpxor  xmm7,xmm7,xmm7
    38ba:	48 05 c0 00 00 00    	add    rax,0xc0
    38c0:	c5 fd 7f 7d d0       	vmovdqa YMMWORD PTR [rbp-0x30],ymm7
    38c5:	48 c1 e2 20          	shl    rdx,0x20
    38c9:	49 09 d1             	or     r9,rdx
    38cc:	48 8b 55 d8          	mov    rdx,QWORD PTR [rbp-0x28]
    38d0:	4c 89 4d d0          	mov    QWORD PTR [rbp-0x30],r9
    38d4:	44 8b 88 70 ff ff ff 	mov    r9d,DWORD PTR [rax-0x90]
    38db:	48 21 ca             	and    rdx,rcx
    38de:	4c 09 ca             	or     rdx,r9
    38e1:	44 8b 48 88          	mov    r9d,DWORD PTR [rax-0x78]
    38e5:	89 d2                	mov    edx,edx
    38e7:	49 c1 e1 20          	shl    r9,0x20
    38eb:	4c 09 ca             	or     rdx,r9
    38ee:	44 8b 48 a0          	mov    r9d,DWORD PTR [rax-0x60]
    38f2:	48 89 55 d8          	mov    QWORD PTR [rbp-0x28],rdx
    38f6:	48 8b 55 e0          	mov    rdx,QWORD PTR [rbp-0x20]
    38fa:	48 21 ca             	and    rdx,rcx
    38fd:	4c 09 ca             	or     rdx,r9
    3900:	44 8b 48 b8          	mov    r9d,DWORD PTR [rax-0x48]
    3904:	89 d2                	mov    edx,edx
    3906:	49 c1 e1 20          	shl    r9,0x20
    390a:	4c 09 ca             	or     rdx,r9
    390d:	44 8b 48 d0          	mov    r9d,DWORD PTR [rax-0x30]
    3911:	48 89 55 e0          	mov    QWORD PTR [rbp-0x20],rdx
    3915:	48 8b 55 e8          	mov    rdx,QWORD PTR [rbp-0x18]
    3919:	48 21 ca             	and    rdx,rcx
    391c:	4c 09 ca             	or     rdx,r9
    391f:	44 8b 48 e8          	mov    r9d,DWORD PTR [rax-0x18]
    3923:	89 d2                	mov    edx,edx
    3925:	49 c1 e1 20          	shl    r9,0x20
    3929:	4c 09 ca             	or     rdx,r9
    392c:	48 89 55 e8          	mov    QWORD PTR [rbp-0x18],rdx
    3930:	c5 fd 6f 7d d0       	vmovdqa ymm7,YMMWORD PTR [rbp-0x30]
    3935:	c5 ed db 45 d0       	vpand  ymm0,ymm2,YMMWORD PTR [rbp-0x30]
    393a:	c5 f5 72 d7 10       	vpsrld ymm1,ymm7,0x10
    393f:	c5 fc 5b c9          	vcvtdq2ps ymm1,ymm1
    3943:	c5 f4 59 cd          	vmulps ymm1,ymm1,ymm5
    3947:	c5 fc 5b c0          	vcvtdq2ps ymm0,ymm0
    394b:	c5 fc 58 c1          	vaddps ymm0,ymm0,ymm1
    394f:	c5 fc 5c c6          	vsubps ymm0,ymm0,ymm6
    3953:	c5 fc 59 c0          	vmulps ymm0,ymm0,ymm0
    3957:	c5 ba 58 c8          	vaddss xmm1,xmm8,xmm0
    395b:	c5 78 c6 c0 55       	vshufps xmm8,xmm0,xmm0,0x55
    3960:	c5 f8 c6 f8 ff       	vshufps xmm7,xmm0,xmm0,0xff
    3965:	c4 c1 72 58 c8       	vaddss xmm1,xmm1,xmm8
    396a:	c5 78 15 c0          	vunpckhps xmm8,xmm0,xmm0
    396e:	c4 e3 7d 19 c0 01    	vextractf128 xmm0,ymm0,0x1
    3974:	c4 c1 72 58 c8       	vaddss xmm1,xmm1,xmm8
    3979:	c5 f2 58 cf          	vaddss xmm1,xmm1,xmm7
    397d:	c5 f8 c6 f8 55       	vshufps xmm7,xmm0,xmm0,0x55
    3982:	c5 f2 58 c8          	vaddss xmm1,xmm1,xmm0
    3986:	c5 f2 58 cf          	vaddss xmm1,xmm1,xmm7
    398a:	c5 f8 15 f8          	vunpckhps xmm7,xmm0,xmm0
    398e:	c5 f8 c6 c0 ff       	vshufps xmm0,xmm0,xmm0,0xff
    3993:	c5 f2 58 cf          	vaddss xmm1,xmm1,xmm7
    3997:	c5 72 58 c0          	vaddss xmm8,xmm1,xmm0
    399b:	49 39 c0             	cmp    r8,rax
    399e:	0f 85 0c ff ff ff    	jne    38b0 <_Z27standartDeviationCollisionsP7HashMapf+0x90>
    39a4:	89 f0                	mov    eax,esi
    39a6:	83 e0 f8             	and    eax,0xfffffff8
    39a9:	40 f6 c6 07          	test   sil,0x7
    39ad:	0f 84 45 01 00 00    	je     3af8 <_Z27standartDeviationCollisionsP7HashMapf+0x2d8>
    39b3:	c5 f8 77             	vzeroupper
    39b6:	89 f1                	mov    ecx,esi
    39b8:	29 c1                	sub    ecx,eax
    39ba:	8d 51 ff             	lea    edx,[rcx-0x1]
    39bd:	83 fa 02             	cmp    edx,0x2
    39c0:	0f 86 8b 00 00 00    	jbe    3a51 <_Z27standartDeviationCollisionsP7HashMapf+0x231>
    39c6:	c4 e2 79 18 15 41 06 	vbroadcastss xmm2,DWORD PTR [rip+0x641]        # 4010 <_IO_stdin_used+0x10>
    39cd:	00 00 
    39cf:	89 c2                	mov    edx,eax
    39d1:	48 8d 14 52          	lea    rdx,[rdx+rdx*2]
    39d5:	c5 f9 6e 4c d7 10    	vmovd  xmm1,DWORD PTR [rdi+rdx*8+0x10]
    39db:	c4 e3 71 22 4c d7 28 	vpinsrd xmm1,xmm1,DWORD PTR [rdi+rdx*8+0x28],0x1
    39e2:	01 
    39e3:	c4 e3 71 22 4c d7 40 	vpinsrd xmm1,xmm1,DWORD PTR [rdi+rdx*8+0x40],0x2
    39ea:	02 
    39eb:	c4 e3 71 22 4c d7 58 	vpinsrd xmm1,xmm1,DWORD PTR [rdi+rdx*8+0x58],0x3
    39f2:	03 
    39f3:	ba ff ff 00 00       	mov    edx,0xffff
    39f8:	c5 f9 6e c2          	vmovd  xmm0,edx
    39fc:	89 ca                	mov    edx,ecx
    39fe:	c5 f9 70 c0 00       	vpshufd xmm0,xmm0,0x0
    3a03:	83 e2 fc             	and    edx,0xfffffffc
    3a06:	c5 f1 db c0          	vpand  xmm0,xmm1,xmm0
    3a0a:	c5 f1 72 d1 10       	vpsrld xmm1,xmm1,0x10
    3a0f:	01 d0                	add    eax,edx
    3a11:	83 e1 03             	and    ecx,0x3
    3a14:	c5 f8 5b c9          	vcvtdq2ps xmm1,xmm1
    3a18:	c5 f0 59 ca          	vmulps xmm1,xmm1,xmm2
    3a1c:	c5 f8 5b c0          	vcvtdq2ps xmm0,xmm0
    3a20:	c5 f8 58 c1          	vaddps xmm0,xmm0,xmm1
    3a24:	c5 d8 c6 cc 00       	vshufps xmm1,xmm4,xmm4,0x0
    3a29:	c5 f8 5c c1          	vsubps xmm0,xmm0,xmm1
    3a2d:	c5 f8 59 c0          	vmulps xmm0,xmm0,xmm0
    3a31:	c5 ba 58 c8          	vaddss xmm1,xmm8,xmm0
    3a35:	c5 f8 c6 d0 55       	vshufps xmm2,xmm0,xmm0,0x55
    3a3a:	c5 f2 58 ca          	vaddss xmm1,xmm1,xmm2
    3a3e:	c5 f8 15 d0          	vunpckhps xmm2,xmm0,xmm0
    3a42:	c5 f8 c6 c0 ff       	vshufps xmm0,xmm0,xmm0,0xff
    3a47:	c5 f2 58 ca          	vaddss xmm1,xmm1,xmm2
    3a4b:	c5 72 58 c0          	vaddss xmm8,xmm1,xmm0
    3a4f:	74 5b                	je     3aac <_Z27standartDeviationCollisionsP7HashMapf+0x28c>
    3a51:	89 c2                	mov    edx,eax
    3a53:	48 8d 14 52          	lea    rdx,[rdx+rdx*2]
    3a57:	8b 54 d7 10          	mov    edx,DWORD PTR [rdi+rdx*8+0x10]
    3a5b:	c4 e1 e2 2a c2       	vcvtsi2ss xmm0,xmm3,rdx
    3a60:	8d 50 01             	lea    edx,[rax+0x1]
    3a63:	c5 fa 5c c4          	vsubss xmm0,xmm0,xmm4
    3a67:	c5 fa 59 c0          	vmulss xmm0,xmm0,xmm0
    3a6b:	c5 3a 58 c0          	vaddss xmm8,xmm8,xmm0
    3a6f:	39 f2                	cmp    edx,esi
    3a71:	73 39                	jae    3aac <_Z27standartDeviationCollisionsP7HashMapf+0x28c>
    3a73:	48 8d 14 52          	lea    rdx,[rdx+rdx*2]
    3a77:	83 c0 02             	add    eax,0x2
    3a7a:	8b 54 d7 10          	mov    edx,DWORD PTR [rdi+rdx*8+0x10]
    3a7e:	c4 e1 e2 2a c2       	vcvtsi2ss xmm0,xmm3,rdx
    3a83:	c5 fa 5c c4          	vsubss xmm0,xmm0,xmm4
    3a87:	c5 fa 59 c0          	vmulss xmm0,xmm0,xmm0
    3a8b:	c5 3a 58 c0          	vaddss xmm8,xmm8,xmm0
    3a8f:	39 f0                	cmp    eax,esi
    3a91:	73 19                	jae    3aac <_Z27standartDeviationCollisionsP7HashMapf+0x28c>
    3a93:	48 8d 04 40          	lea    rax,[rax+rax*2]
    3a97:	8b 44 c7 10          	mov    eax,DWORD PTR [rdi+rax*8+0x10]
    3a9b:	c4 e1 e2 2a c0       	vcvtsi2ss xmm0,xmm3,rax
    3aa0:	c5 fa 5c c4          	vsubss xmm0,xmm0,xmm4
    3aa4:	c5 fa 59 c0          	vmulss xmm0,xmm0,xmm0
    3aa8:	c5 3a 58 c0          	vaddss xmm8,xmm8,xmm0
    3aac:	c4 e1 e2 2a de       	vcvtsi2ss xmm3,xmm3,rsi
    3ab1:	c5 f8 57 c0          	vxorps xmm0,xmm0,xmm0
    3ab5:	c5 3a 5e c3          	vdivss xmm8,xmm8,xmm3
    3ab9:	c4 c1 78 2e c0       	vucomiss xmm0,xmm8
    3abe:	77 49                	ja     3b09 <_Z27standartDeviationCollisionsP7HashMapf+0x2e9>
    3ac0:	4c 8b 6d f8          	mov    r13,QWORD PTR [rbp-0x8]
    3ac4:	c4 c1 3a 51 c0       	vsqrtss xmm0,xmm8,xmm8
    3ac9:	c9                   	leave
    3aca:	49 8d 65 f0          	lea    rsp,[r13-0x10]
    3ace:	41 5d                	pop    r13
    3ad0:	c3                   	ret
    3ad1:	0f 1f 80 00 00 00 00 	nop    DWORD PTR [rax+0x0]
    3ad8:	c4 41 38 57 c0       	vxorps xmm8,xmm8,xmm8
    3add:	4c 8b 6d f8          	mov    r13,QWORD PTR [rbp-0x8]
    3ae1:	c4 41 3a 5e c0       	vdivss xmm8,xmm8,xmm8
    3ae6:	c9                   	leave
    3ae7:	49 8d 65 f0          	lea    rsp,[r13-0x10]
    3aeb:	41 5d                	pop    r13
    3aed:	c4 c1 3a 51 c0       	vsqrtss xmm0,xmm8,xmm8
    3af2:	c3                   	ret
    3af3:	0f 1f 44 00 00       	nop    DWORD PTR [rax+rax*1+0x0]
    3af8:	c5 f8 77             	vzeroupper
    3afb:	eb af                	jmp    3aac <_Z27standartDeviationCollisionsP7HashMapf+0x28c>
    3afd:	31 c0                	xor    eax,eax
    3aff:	c4 41 38 57 c0       	vxorps xmm8,xmm8,xmm8
    3b04:	e9 ad fe ff ff       	jmp    39b6 <_Z27standartDeviationCollisionsP7HashMapf+0x196>
    3b09:	4c 8b 6d f8          	mov    r13,QWORD PTR [rbp-0x8]
    3b0d:	c5 78 29 c0          	vmovaps xmm0,xmm8
    3b11:	c9                   	leave
    3b12:	49 8d 65 f0          	lea    rsp,[r13-0x10]
    3b16:	41 5d                	pop    r13
    3b18:	e9 73 d6 ff ff       	jmp    1190 <sqrtf@plt>
    3b1d:	48 8d 0d 74 0b 00 00 	lea    rcx,[rip+0xb74]        # 4698 <_IO_stdin_used+0x698>
    3b24:	ba b5 00 00 00       	mov    edx,0xb5
    3b29:	48 8d 35 3f 06 00 00 	lea    rsi,[rip+0x63f]        # 416f <_IO_stdin_used+0x16f>
    3b30:	48 8d 3d eb 04 00 00 	lea    rdi,[rip+0x4eb]        # 4022 <_IO_stdin_used+0x22>
    3b37:	e8 34 d5 ff ff       	call   1070 <__assert_fail@plt>
    3b3c:	0f 1f 40 00          	nop    DWORD PTR [rax+0x0]

0000000000003b40 <my_strcmp>:
    3b40:	c5 fd 6f 07          	vmovdqa ymm0,YMMWORD PTR [rdi]
    3b44:	c5 fd 6f 0e          	vmovdqa ymm1,YMMWORD PTR [rsi]
    3b48:	c4 e2 7d 29 d1       	vpcmpeqq ymm2,ymm0,ymm1
    3b4d:	c5 fd d7 c2          	vpmovmskb eax,ymm2
    3b51:	f7 d0                	not    eax
    3b53:	c3                   	ret

Disassembly of section .fini:

0000000000003b54 <_fini>:
    3b54:	f3 0f 1e fa          	endbr64
    3b58:	48 83 ec 08          	sub    rsp,0x8
    3b5c:	48 83 c4 08          	add    rsp,0x8
    3b60:	c3                   	ret
